(imatplotlib.font_manager
FontManager
p1
(dp2
S'afm_lookup_cache'
p3
(dp4
sS'ttflist'
p5
(lp6
ccopy_reg
_reconstructor
p7
(cmatplotlib.font_manager
FontEntry
p8
c__builtin__
object
p9
NtRp10
(dp11
S'style'
p12
S'normal'
p13
sS'name'
p14
S'cmex10'
p15
sS'weight'
p16
I400
sS'stretch'
p17
g13
sS'variant'
p18
g13
sS'fname'
p19
S'/System/Library/Frameworks/Python.framework/Versions/2.7/Extras/lib/python/matplotlib/mpl-data/fonts/ttf/cmex10.ttf'
p20
sS'size'
p21
S'scalable'
p22
sbag7
(g8
g9
NtRp23
(dp24
g12
S'oblique'
p25
sg14
S'Bitstream Vera Sans'
p26
sg16
I700
sg17
g13
sg18
g13
sg19
S'/System/Library/Frameworks/Python.framework/Versions/2.7/Extras/lib/python/matplotlib/mpl-data/fonts/ttf/VeraBI.ttf'
p27
sg21
g22
sbag7
(g8
g9
NtRp28
(dp29
g12
g13
sg14
S'STIXNonUnicode'
p30
sg16
I400
sg17
g13
sg18
g13
sg19
S'/System/Library/Frameworks/Python.framework/Versions/2.7/Extras/lib/python/matplotlib/mpl-data/fonts/ttf/STIXNonUni.ttf'
p31
sg21
g22
sbag7
(g8
g9
NtRp32
(dp33
g12
g13
sg14
S'STIXNonUnicode'
p34
sg16
I700
sg17
g13
sg18
g13
sg19
S'/System/Library/Frameworks/Python.framework/Versions/2.7/Extras/lib/python/matplotlib/mpl-data/fonts/ttf/STIXNonUniBol.ttf'
p35
sg21
g22
sbag7
(g8
g9
NtRp36
(dp37
g12
g13
sg14
S'Bitstream Vera Sans Mono'
p38
sg16
I700
sg17
g13
sg18
g13
sg19
S'/System/Library/Frameworks/Python.framework/Versions/2.7/Extras/lib/python/matplotlib/mpl-data/fonts/ttf/VeraMoBd.ttf'
p39
sg21
g22
sbag7
(g8
g9
NtRp40
(dp41
g12
g13
sg14
S'cmr10'
p42
sg16
I400
sg17
g13
sg18
g13
sg19
S'/System/Library/Frameworks/Python.framework/Versions/2.7/Extras/lib/python/matplotlib/mpl-data/fonts/ttf/cmr10.ttf'
p43
sg21
g22
sbag7
(g8
g9
NtRp44
(dp45
g12
g13
sg14
S'STIXGeneral'
p46
sg16
I400
sg17
g13
sg18
g13
sg19
S'/System/Library/Frameworks/Python.framework/Versions/2.7/Extras/lib/python/matplotlib/mpl-data/fonts/ttf/STIXGeneral.ttf'
p47
sg21
g22
sbag7
(g8
g9
NtRp48
(dp49
g12
g25
sg14
S'Bitstream Vera Sans Mono'
p50
sg16
I400
sg17
g13
sg18
g13
sg19
S'/System/Library/Frameworks/Python.framework/Versions/2.7/Extras/lib/python/matplotlib/mpl-data/fonts/ttf/VeraMoIt.ttf'
p51
sg21
g22
sbag7
(g8
g9
NtRp52
(dp53
g12
g13
sg14
S'Bitstream Vera Serif'
p54
sg16
I400
sg17
g13
sg18
g13
sg19
S'/System/Library/Frameworks/Python.framework/Versions/2.7/Extras/lib/python/matplotlib/mpl-data/fonts/ttf/VeraSe.ttf'
p55
sg21
g22
sbag7
(g8
g9
NtRp56
(dp57
g12
g13
sg14
S'STIXSizeFiveSym'
p58
sg16
I400
sg17
g13
sg18
g13
sg19
S'/System/Library/Frameworks/Python.framework/Versions/2.7/Extras/lib/python/matplotlib/mpl-data/fonts/ttf/STIXSizFiveSymReg.ttf'
p59
sg21
g22
sbag7
(g8
g9
NtRp60
(dp61
g12
g13
sg14
S'Bitstream Vera Sans Mono'
p62
sg16
I400
sg17
g13
sg18
g13
sg19
S'/System/Library/Frameworks/Python.framework/Versions/2.7/Extras/lib/python/matplotlib/mpl-data/fonts/ttf/VeraMono.ttf'
p63
sg21
g22
sbag7
(g8
g9
NtRp64
(dp65
g12
g25
sg14
S'Bitstream Vera Sans Mono'
p66
sg16
I700
sg17
g13
sg18
g13
sg19
S'/System/Library/Frameworks/Python.framework/Versions/2.7/Extras/lib/python/matplotlib/mpl-data/fonts/ttf/VeraMoBI.ttf'
p67
sg21
g22
sbag7
(g8
g9
NtRp68
(dp69
g12
g13
sg14
S'STIXGeneral'
p70
sg16
I700
sg17
g13
sg18
g13
sg19
S'/System/Library/Frameworks/Python.framework/Versions/2.7/Extras/lib/python/matplotlib/mpl-data/fonts/ttf/STIXGeneralBol.ttf'
p71
sg21
g22
sbag7
(g8
g9
NtRp72
(dp73
g12
S'italic'
p74
sg14
S'STIXGeneral'
p75
sg16
I400
sg17
g13
sg18
g13
sg19
S'/System/Library/Frameworks/Python.framework/Versions/2.7/Extras/lib/python/matplotlib/mpl-data/fonts/ttf/STIXGeneralItalic.ttf'
p76
sg21
g22
sbag7
(g8
g9
NtRp77
(dp78
g12
g13
sg14
S'STIXSizeFourSym'
p79
sg16
I400
sg17
g13
sg18
g13
sg19
S'/System/Library/Frameworks/Python.framework/Versions/2.7/Extras/lib/python/matplotlib/mpl-data/fonts/ttf/STIXSizFourSymReg.ttf'
p80
sg21
g22
sbag7
(g8
g9
NtRp81
(dp82
g12
g13
sg14
S'STIXSizeThreeSym'
p83
sg16
I700
sg17
g13
sg18
g13
sg19
S'/System/Library/Frameworks/Python.framework/Versions/2.7/Extras/lib/python/matplotlib/mpl-data/fonts/ttf/STIXSizThreeSymBol.ttf'
p84
sg21
g22
sbag7
(g8
g9
NtRp85
(dp86
g12
g13
sg14
S'STIXSizeOneSym'
p87
sg16
I700
sg17
g13
sg18
g13
sg19
S'/System/Library/Frameworks/Python.framework/Versions/2.7/Extras/lib/python/matplotlib/mpl-data/fonts/ttf/STIXSizOneSymBol.ttf'
p88
sg21
g22
sbag7
(g8
g9
NtRp89
(dp90
g12
g13
sg14
S'STIXSizeFourSym'
p91
sg16
I700
sg17
g13
sg18
g13
sg19
S'/System/Library/Frameworks/Python.framework/Versions/2.7/Extras/lib/python/matplotlib/mpl-data/fonts/ttf/STIXSizFourSymBol.ttf'
p92
sg21
g22
sbag7
(g8
g9
NtRp93
(dp94
g12
g13
sg14
S'Bitstream Vera Sans'
p95
sg16
I700
sg17
g13
sg18
g13
sg19
S'/System/Library/Frameworks/Python.framework/Versions/2.7/Extras/lib/python/matplotlib/mpl-data/fonts/ttf/VeraBd.ttf'
p96
sg21
g22
sbag7
(g8
g9
NtRp97
(dp98
g12
g13
sg14
S'cmsy10'
p99
sg16
I400
sg17
g13
sg18
g13
sg19
S'/System/Library/Frameworks/Python.framework/Versions/2.7/Extras/lib/python/matplotlib/mpl-data/fonts/ttf/cmsy10.ttf'
p100
sg21
g22
sbag7
(g8
g9
NtRp101
(dp102
g12
g13
sg14
S'STIXSizeTwoSym'
p103
sg16
I400
sg17
g13
sg18
g13
sg19
S'/System/Library/Frameworks/Python.framework/Versions/2.7/Extras/lib/python/matplotlib/mpl-data/fonts/ttf/STIXSizTwoSymReg.ttf'
p104
sg21
g22
sbag7
(g8
g9
NtRp105
(dp106
g12
g74
sg14
S'STIXNonUnicode'
p107
sg16
I700
sg17
g13
sg18
g13
sg19
S'/System/Library/Frameworks/Python.framework/Versions/2.7/Extras/lib/python/matplotlib/mpl-data/fonts/ttf/STIXNonUniBolIta.ttf'
p108
sg21
g22
sbag7
(g8
g9
NtRp109
(dp110
g12
g13
sg14
S'cmb10'
p111
sg16
I400
sg17
g13
sg18
g13
sg19
S'/System/Library/Frameworks/Python.framework/Versions/2.7/Extras/lib/python/matplotlib/mpl-data/fonts/ttf/cmb10.ttf'
p112
sg21
g22
sbag7
(g8
g9
NtRp113
(dp114
g12
g13
sg14
S'cmmi10'
p115
sg16
I400
sg17
g13
sg18
g13
sg19
S'/System/Library/Frameworks/Python.framework/Versions/2.7/Extras/lib/python/matplotlib/mpl-data/fonts/ttf/cmmi10.ttf'
p116
sg21
g22
sbag7
(g8
g9
NtRp117
(dp118
g12
g25
sg14
S'Bitstream Vera Sans'
p119
sg16
I400
sg17
g13
sg18
g13
sg19
S'/System/Library/Frameworks/Python.framework/Versions/2.7/Extras/lib/python/matplotlib/mpl-data/fonts/ttf/VeraIt.ttf'
p120
sg21
g22
sbag7
(g8
g9
NtRp121
(dp122
g12
g13
sg14
S'STIXSizeOneSym'
p123
sg16
I400
sg17
g13
sg18
g13
sg19
S'/System/Library/Frameworks/Python.framework/Versions/2.7/Extras/lib/python/matplotlib/mpl-data/fonts/ttf/STIXSizOneSymReg.ttf'
p124
sg21
g22
sbag7
(g8
g9
NtRp125
(dp126
g12
g13
sg14
S'Bitstream Vera Sans'
p127
sg16
I400
sg17
g13
sg18
g13
sg19
S'/System/Library/Frameworks/Python.framework/Versions/2.7/Extras/lib/python/matplotlib/mpl-data/fonts/ttf/Vera.ttf'
p128
sg21
g22
sbag7
(g8
g9
NtRp129
(dp130
g12
g13
sg14
S'cmss10'
p131
sg16
I400
sg17
g13
sg18
g13
sg19
S'/System/Library/Frameworks/Python.framework/Versions/2.7/Extras/lib/python/matplotlib/mpl-data/fonts/ttf/cmss10.ttf'
p132
sg21
g22
sbag7
(g8
g9
NtRp133
(dp134
g12
g13
sg14
S'Bitstream Vera Serif'
p135
sg16
I700
sg17
g13
sg18
g13
sg19
S'/System/Library/Frameworks/Python.framework/Versions/2.7/Extras/lib/python/matplotlib/mpl-data/fonts/ttf/VeraSeBd.ttf'
p136
sg21
g22
sbag7
(g8
g9
NtRp137
(dp138
g12
g13
sg14
S'STIXSizeTwoSym'
p139
sg16
I700
sg17
g13
sg18
g13
sg19
S'/System/Library/Frameworks/Python.framework/Versions/2.7/Extras/lib/python/matplotlib/mpl-data/fonts/ttf/STIXSizTwoSymBol.ttf'
p140
sg21
g22
sbag7
(g8
g9
NtRp141
(dp142
g12
g74
sg14
S'STIXNonUnicode'
p143
sg16
I400
sg17
g13
sg18
g13
sg19
S'/System/Library/Frameworks/Python.framework/Versions/2.7/Extras/lib/python/matplotlib/mpl-data/fonts/ttf/STIXNonUniIta.ttf'
p144
sg21
g22
sbag7
(g8
g9
NtRp145
(dp146
g12
g13
sg14
S'cmtt10'
p147
sg16
I400
sg17
g13
sg18
g13
sg19
S'/System/Library/Frameworks/Python.framework/Versions/2.7/Extras/lib/python/matplotlib/mpl-data/fonts/ttf/cmtt10.ttf'
p148
sg21
g22
sbag7
(g8
g9
NtRp149
(dp150
g12
g74
sg14
S'STIXGeneral'
p151
sg16
I700
sg17
g13
sg18
g13
sg19
S'/System/Library/Frameworks/Python.framework/Versions/2.7/Extras/lib/python/matplotlib/mpl-data/fonts/ttf/STIXGeneralBolIta.ttf'
p152
sg21
g22
sbag7
(g8
g9
NtRp153
(dp154
g12
g13
sg14
S'STIXSizeThreeSym'
p155
sg16
I400
sg17
g13
sg18
g13
sg19
S'/System/Library/Frameworks/Python.framework/Versions/2.7/Extras/lib/python/matplotlib/mpl-data/fonts/ttf/STIXSizThreeSymReg.ttf'
p156
sg21
g22
sbag7
(g8
g9
NtRp157
(dp158
g12
g74
sg14
S'Trebuchet MS'
p159
sg16
I400
sg17
g13
sg18
g13
sg19
S'/Library/Fonts/Trebuchet MS Italic.ttf'
p160
sg21
g22
sbag7
(g8
g9
NtRp161
(dp162
g12
g13
sg14
S'Hoefler Text'
p163
sg16
I400
sg17
g13
sg18
g13
sg19
S'/Library/Fonts/Hoefler Text Ornaments.ttf'
p164
sg21
g22
sbag7
(g8
g9
NtRp165
(dp166
g12
g13
sg14
S'.SF Compact Rounded'
p167
sg16
I400
sg17
g13
sg18
g13
sg19
S'/System/Library/Fonts/SFCompactRounded-Heavy.otf'
p168
sg21
g22
sbag7
(g8
g9
NtRp169
(dp170
g12
g13
sg14
S'Times New Roman'
p171
sg16
I500
sg17
g13
sg18
g13
sg19
S'/Library/Fonts/Times New Roman.ttf'
p172
sg21
g22
sbag7
(g8
g9
NtRp173
(dp174
g12
g13
sg14
S'.SF Compact Display'
p175
sg16
I400
sg17
g13
sg18
g13
sg19
S'/System/Library/Fonts/SFCompactDisplay-Medium.otf'
p176
sg21
g22
sbag7
(g8
g9
NtRp177
(dp178
g12
g13
sg14
S'Verdana'
p179
sg16
I700
sg17
g13
sg18
g13
sg19
S'/Library/Fonts/Verdana Bold.ttf'
p180
sg21
g22
sbag7
(g8
g9
NtRp181
(dp182
g12
g13
sg14
S'.SF Compact Rounded'
p183
sg16
I400
sg17
g13
sg18
g13
sg19
S'/System/Library/Fonts/SFCompactRounded-Medium.otf'
p184
sg21
g22
sbag7
(g8
g9
NtRp185
(dp186
g12
g13
sg14
S'Arial Unicode MS'
p187
sg16
I400
sg17
g13
sg18
g13
sg19
S'/Library/Fonts/Arial Unicode.ttf'
p188
sg21
g22
sbag7
(g8
g9
NtRp189
(dp190
g12
g13
sg14
S'STIXSizeThreeSym'
p191
sg16
I400
sg17
g13
sg18
g13
sg19
S'/Library/Fonts/STIXSizThreeSymReg.otf'
p192
sg21
g22
sbag7
(g8
g9
NtRp193
(dp194
g12
g13
sg14
S'DIN Condensed'
p195
sg16
I700
sg17
S'condensed'
p196
sg18
g13
sg19
S'/Library/Fonts/DIN Condensed Bold.ttf'
p197
sg21
g22
sbag7
(g8
g9
NtRp198
(dp199
g12
g13
sg14
S'System Font'
p200
sg16
I400
sg17
g13
sg18
g13
sg19
S'/System/Library/Fonts/SFNSDisplay-ThinG1.otf'
p201
sg21
g22
sbag7
(g8
g9
NtRp202
(dp203
g12
g13
sg14
S'System Font'
p204
sg16
I400
sg17
g13
sg18
g13
sg19
S'/System/Library/Fonts/SFNSDisplay-BoldItalic.otf'
p205
sg21
g22
sbag7
(g8
g9
NtRp206
(dp207
g12
g13
sg14
S'Apple Braille'
p208
sg16
I400
sg17
g13
sg18
g13
sg19
S'/System/Library/Fonts/Apple Braille Pinpoint 6 Dot.ttf'
p209
sg21
g22
sbag7
(g8
g9
NtRp210
(dp211
g12
g13
sg14
S'Arial'
p212
sg16
I400
sg17
g13
sg18
g13
sg19
S'/Library/Fonts/Arial.ttf'
p213
sg21
g22
sbag7
(g8
g9
NtRp214
(dp215
g12
g13
sg14
S'.SF Compact Display'
p216
sg16
I400
sg17
g13
sg18
g13
sg19
S'/System/Library/Fonts/SFCompactDisplay-Semibold.otf'
p217
sg21
g22
sbag7
(g8
g9
NtRp218
(dp219
g12
g13
sg14
S'AppleGothic'
p220
sg16
I400
sg17
g13
sg18
g13
sg19
S'/Library/Fonts/AppleGothic.ttf'
p221
sg21
g22
sbag7
(g8
g9
NtRp222
(dp223
g12
g13
sg14
S'.SF NS Text Condensed'
p224
sg16
I400
sg17
g13
sg18
g13
sg19
S'/System/Library/Fonts/SFNSTextCondensed-Bold.otf'
p225
sg21
g22
sbag7
(g8
g9
NtRp226
(dp227
g12
g13
sg14
S'Arial Narrow'
p228
sg16
I400
sg17
g196
sg18
g13
sg19
S'/Library/Fonts/Arial Narrow.ttf'
p229
sg21
g22
sbag7
(g8
g9
NtRp230
(dp231
g12
g13
sg14
S'.SF NS Display Condensed'
p232
sg16
I400
sg17
g13
sg18
g13
sg19
S'/System/Library/Fonts/SFNSDisplayCondensed-Bold.otf'
p233
sg21
g22
sbag7
(g8
g9
NtRp234
(dp235
g12
g13
sg14
S'.SF Compact Rounded'
p236
sg16
I400
sg17
g13
sg18
g13
sg19
S'/System/Library/Fonts/SFCompactRounded-Ultralight.otf'
p237
sg21
g22
sbag7
(g8
g9
NtRp238
(dp239
g12
g13
sg14
S'.SF NS Display Condensed'
p240
sg16
I400
sg17
g13
sg18
g13
sg19
S'/System/Library/Fonts/SFNSDisplayCondensed-Semibold.otf'
p241
sg21
g22
sbag7
(g8
g9
NtRp242
(dp243
g12
g13
sg14
S'AppleMyungjo'
p244
sg16
I400
sg17
g13
sg18
g13
sg19
S'/Library/Fonts/AppleMyungjo.ttf'
p245
sg21
g22
sbag7
(g8
g9
NtRp246
(dp247
g12
g13
sg14
S'Mishafi Gold'
p248
sg16
I400
sg17
g13
sg18
g13
sg19
S'/Library/Fonts/Mishafi Gold.ttf'
p249
sg21
g22
sbag7
(g8
g9
NtRp250
(dp251
g12
g13
sg14
S'Zapf Dingbats'
p252
sg16
I400
sg17
g13
sg18
g13
sg19
S'/System/Library/Fonts/ZapfDingbats.ttf'
p253
sg21
g22
sbag7
(g8
g9
NtRp254
(dp255
g12
g13
sg14
S'.SF Compact Rounded'
p256
sg16
I400
sg17
g13
sg18
g13
sg19
S'/System/Library/Fonts/SFCompactRounded-Semibold.otf'
p257
sg21
g22
sbag7
(g8
g9
NtRp258
(dp259
g12
g13
sg14
S'.SF Compact Text'
p260
sg16
I400
sg17
g13
sg18
g13
sg19
S'/System/Library/Fonts/SFCompactText-BoldItalic.otf'
p261
sg21
g22
sbag7
(g8
g9
NtRp262
(dp263
g12
g13
sg14
S'STIXIntegralsD'
p264
sg16
I700
sg17
g13
sg18
g13
sg19
S'/Library/Fonts/STIXIntDBol.otf'
p265
sg21
g22
sbag7
(g8
g9
NtRp266
(dp267
g12
g13
sg14
S'System Font'
p268
sg16
I400
sg17
g13
sg18
g13
sg19
S'/System/Library/Fonts/SFNSTextItalic.ttf'
p269
sg21
g22
sbag7
(g8
g9
NtRp270
(dp271
g12
g13
sg14
S'DIN Alternate'
p272
sg16
I700
sg17
g13
sg18
g13
sg19
S'/Library/Fonts/DIN Alternate Bold.ttf'
p273
sg21
g22
sbag7
(g8
g9
NtRp274
(dp275
g12
g13
sg14
S'.SF Compact Display'
p276
sg16
I400
sg17
g13
sg18
g13
sg19
S'/System/Library/Fonts/SFCompactDisplay-Bold.otf'
p277
sg21
g22
sbag7
(g8
g9
NtRp278
(dp279
g12
g13
sg14
S'STIXSizeThreeSym'
p280
sg16
I700
sg17
g13
sg18
g13
sg19
S'/Library/Fonts/STIXSizThreeSymBol.otf'
p281
sg21
g22
sbag7
(g8
g9
NtRp282
(dp283
g12
g13
sg14
S'System Font'
p284
sg16
I400
sg17
g13
sg18
g13
sg19
S'/System/Library/Fonts/SFNSDisplay.ttf'
p285
sg21
g22
sbag7
(g8
g9
NtRp286
(dp287
g12
g13
sg14
S'Courier New'
p288
sg16
I400
sg17
g13
sg18
g13
sg19
S'/Library/Fonts/Courier New.ttf'
p289
sg21
g22
sbag7
(g8
g9
NtRp290
(dp291
g12
g74
sg14
S'Arial Narrow'
p292
sg16
I700
sg17
g196
sg18
g13
sg19
S'/Library/Fonts/Arial Narrow Bold Italic.ttf'
p293
sg21
g22
sbag7
(g8
g9
NtRp294
(dp295
g12
g13
sg14
S'.SF NS Symbols'
p296
sg16
I400
sg17
g13
sg18
g13
sg19
S'/System/Library/Fonts/SFNSSymbols-Ultralight.otf'
p297
sg21
g22
sbag7
(g8
g9
NtRp298
(dp299
g12
g13
sg14
S'Luminari'
p300
sg16
I400
sg17
g13
sg18
g13
sg19
S'/Library/Fonts/Luminari.ttf'
p301
sg21
g22
sbag7
(g8
g9
NtRp302
(dp303
g12
g13
sg14
S'Zapfino'
p304
sg16
I400
sg17
g13
sg18
g13
sg19
S'/Library/Fonts/Zapfino.ttf'
p305
sg21
g22
sbag7
(g8
g9
NtRp306
(dp307
g12
g13
sg14
S'Arial Narrow'
p308
sg16
I700
sg17
g196
sg18
g13
sg19
S'/Library/Fonts/Arial Narrow Bold.ttf'
p309
sg21
g22
sbag7
(g8
g9
NtRp310
(dp311
g12
g74
sg14
S'Times New Roman'
p312
sg16
I500
sg17
g13
sg18
g13
sg19
S'/Library/Fonts/Times New Roman Italic.ttf'
p313
sg21
g22
sbag7
(g8
g9
NtRp314
(dp315
g12
g13
sg14
S'.SF NS Text Condensed'
p316
sg16
I400
sg17
g13
sg18
g13
sg19
S'/System/Library/Fonts/SFNSTextCondensed-Medium.otf'
p317
sg21
g22
sbag7
(g8
g9
NtRp318
(dp319
g12
g13
sg14
S'Krungthep'
p320
sg16
I400
sg17
g13
sg18
g13
sg19
S'/Library/Fonts/Krungthep.ttf'
p321
sg21
g22
sbag7
(g8
g9
NtRp322
(dp323
g12
g13
sg14
S'.SF NS Display Condensed'
p324
sg16
I400
sg17
g13
sg18
g13
sg19
S'/System/Library/Fonts/SFNSDisplayCondensed-Light.otf'
p325
sg21
g22
sbag7
(g8
g9
NtRp326
(dp327
g12
g13
sg14
S'STIXSizeTwoSym'
p328
sg16
I700
sg17
g13
sg18
g13
sg19
S'/Library/Fonts/STIXSizTwoSymBol.otf'
p329
sg21
g22
sbag7
(g8
g9
NtRp330
(dp331
g12
g13
sg14
S'STIXIntegralsSm'
p332
sg16
I700
sg17
g13
sg18
g13
sg19
S'/Library/Fonts/STIXIntSmBol.otf'
p333
sg21
g22
sbag7
(g8
g9
NtRp334
(dp335
g12
g13
sg14
S'Diwan Thuluth'
p336
sg16
I400
sg17
g13
sg18
g13
sg19
S'/Library/Fonts/Diwan Thuluth.ttf'
p337
sg21
g22
sbag7
(g8
g9
NtRp338
(dp339
g12
g13
sg14
S'Trebuchet MS'
p340
sg16
I700
sg17
g13
sg18
g13
sg19
S'/Library/Fonts/Trebuchet MS Bold.ttf'
p341
sg21
g22
sbag7
(g8
g9
NtRp342
(dp343
g12
g13
sg14
S'.SF Compact Text'
p344
sg16
I400
sg17
g13
sg18
g13
sg19
S'/System/Library/Fonts/SFCompactText-HeavyItalic.otf'
p345
sg21
g22
sbag7
(g8
g9
NtRp346
(dp347
g12
g13
sg14
S'Bradley Hand'
p348
sg16
I700
sg17
g13
sg18
g13
sg19
S'/Library/Fonts/Bradley Hand Bold.ttf'
p349
sg21
g22
sbag7
(g8
g9
NtRp350
(dp351
g12
g13
sg14
S'Apple Symbols'
p352
sg16
I400
sg17
g13
sg18
g13
sg19
S'/System/Library/Fonts/Apple Symbols.ttf'
p353
sg21
g22
sbag7
(g8
g9
NtRp354
(dp355
g12
g13
sg14
S'System Font'
p356
sg16
I400
sg17
g13
sg18
g13
sg19
S'/System/Library/Fonts/SFNSDisplay-SemiboldItalic.otf'
p357
sg21
g22
sbag7
(g8
g9
NtRp358
(dp359
g12
g74
sg14
S'Times New Roman'
p360
sg16
I700
sg17
g13
sg18
g13
sg19
S'/Library/Fonts/Times New Roman Bold Italic.ttf'
p361
sg21
g22
sbag7
(g8
g9
NtRp362
(dp363
g12
g13
sg14
S'System Font'
p364
sg16
I400
sg17
g13
sg18
g13
sg19
S'/System/Library/Fonts/SFNSDisplay-RegularItalic.otf'
p365
sg21
g22
sbag7
(g8
g9
NtRp366
(dp367
g12
g74
sg14
S'Arial Narrow'
p368
sg16
I400
sg17
g196
sg18
g13
sg19
S'/Library/Fonts/Arial Narrow Italic.ttf'
p369
sg21
g22
sbag7
(g8
g9
NtRp370
(dp371
g12
g13
sg14
S'.SF Compact Rounded'
p372
sg16
I400
sg17
g13
sg18
g13
sg19
S'/System/Library/Fonts/SFCompactRounded-Light.otf'
p373
sg21
g22
sbag7
(g8
g9
NtRp374
(dp375
g12
g13
sg14
S'.SF Compact Display'
p376
sg16
I400
sg17
g13
sg18
g13
sg19
S'/System/Library/Fonts/SFCompactDisplay-Regular.otf'
p377
sg21
g22
sbag7
(g8
g9
NtRp378
(dp379
g12
g13
sg14
S'.SF NS Display Condensed'
p380
sg16
I400
sg17
g13
sg18
g13
sg19
S'/System/Library/Fonts/SFNSDisplayCondensed-Ultralight.otf'
p381
sg21
g22
sbag7
(g8
g9
NtRp382
(dp383
g12
g13
sg14
S'Apple Braille'
p384
sg16
I400
sg17
g13
sg18
g13
sg19
S'/System/Library/Fonts/Apple Braille Outline 8 Dot.ttf'
p385
sg21
g22
sbag7
(g8
g9
NtRp386
(dp387
g12
g13
sg14
S'.SF NS Text Condensed'
p388
sg16
I400
sg17
g13
sg18
g13
sg19
S'/System/Library/Fonts/SFNSTextCondensed-Heavy.otf'
p389
sg21
g22
sbag7
(g8
g9
NtRp390
(dp391
g12
g13
sg14
S'Plantagenet Cherokee'
p392
sg16
I400
sg17
g13
sg18
g13
sg19
S'/Library/Fonts/PlantagenetCherokee.ttf'
p393
sg21
g22
sbag7
(g8
g9
NtRp394
(dp395
g12
g13
sg14
S'Times New Roman'
p396
sg16
I700
sg17
g13
sg18
g13
sg19
S'/Library/Fonts/Times New Roman Bold.ttf'
p397
sg21
g22
sbag7
(g8
g9
NtRp398
(dp399
g12
g74
sg14
S'Arial'
p400
sg16
I700
sg17
g13
sg18
g13
sg19
S'/Library/Fonts/Arial Bold Italic.ttf'
p401
sg21
g22
sbag7
(g8
g9
NtRp402
(dp403
g12
g13
sg14
S'.SF NS Text Condensed'
p404
sg16
I400
sg17
g13
sg18
g13
sg19
S'/System/Library/Fonts/SFNSTextCondensed-Regular.otf'
p405
sg21
g22
sbag7
(g8
g9
NtRp406
(dp407
g12
g13
sg14
S'.SF NS Symbols'
p408
sg16
I400
sg17
g13
sg18
g13
sg19
S'/System/Library/Fonts/SFNSSymbols-Thin.otf'
p409
sg21
g22
sbag7
(g8
g9
NtRp410
(dp411
g12
g13
sg14
S'STIXVariants'
p412
sg16
I400
sg17
g13
sg18
g13
sg19
S'/Library/Fonts/STIXVar.otf'
p413
sg21
g22
sbag7
(g8
g9
NtRp414
(dp415
g12
g13
sg14
S'Mishafi'
p416
sg16
I400
sg17
g13
sg18
g13
sg19
S'/Library/Fonts/Mishafi.ttf'
p417
sg21
g22
sbag7
(g8
g9
NtRp418
(dp419
g12
g13
sg14
S'STIXVariants'
p420
sg16
I700
sg17
g13
sg18
g13
sg19
S'/Library/Fonts/STIXVarBol.otf'
p421
sg21
g22
sbag7
(g8
g9
NtRp422
(dp423
g12
g13
sg14
S'Georgia'
p424
sg16
I400
sg17
g13
sg18
g13
sg19
S'/Library/Fonts/Georgia.ttf'
p425
sg21
g22
sbag7
(g8
g9
NtRp426
(dp427
g12
g13
sg14
S'System Font'
p428
sg16
I400
sg17
g13
sg18
g13
sg19
S'/System/Library/Fonts/SFNSDisplay-BlackItalic.otf'
p429
sg21
g22
sbag7
(g8
g9
NtRp430
(dp431
g12
g13
sg14
S'.SF Compact Text'
p432
sg16
I400
sg17
g13
sg18
g13
sg19
S'/System/Library/Fonts/SFCompactText-Regular.otf'
p433
sg21
g22
sbag7
(g8
g9
NtRp434
(dp435
g12
g13
sg14
S'.SF Compact Text'
p436
sg16
I400
sg17
g13
sg18
g13
sg19
S'/System/Library/Fonts/SFCompactText-Semibold.otf'
p437
sg21
g22
sbag7
(g8
g9
NtRp438
(dp439
g12
g13
sg14
S'.LastResort'
p440
sg16
I400
sg17
g13
sg18
g13
sg19
S'/System/Library/Fonts/LastResort.otf'
p441
sg21
g22
sbag7
(g8
g9
NtRp442
(dp443
g12
g13
sg14
S'STIXIntegralsUp'
p444
sg16
I700
sg17
g13
sg18
g13
sg19
S'/Library/Fonts/STIXIntUpBol.otf'
p445
sg21
g22
sbag7
(g8
g9
NtRp446
(dp447
g12
g13
sg14
S'.SF Compact Text'
p448
sg16
I400
sg17
g13
sg18
g13
sg19
S'/System/Library/Fonts/SFCompactText-Bold.otf'
p449
sg21
g22
sbag7
(g8
g9
NtRp450
(dp451
g12
g74
sg14
S'Trebuchet MS'
p452
sg16
I700
sg17
g13
sg18
g13
sg19
S'/Library/Fonts/Trebuchet MS Bold Italic.ttf'
p453
sg21
g22
sbag7
(g8
g9
NtRp454
(dp455
g12
g13
sg14
S'STIXSizeFiveSym'
p456
sg16
I400
sg17
g13
sg18
g13
sg19
S'/Library/Fonts/STIXSizFiveSymReg.otf'
p457
sg21
g22
sbag7
(g8
g9
NtRp458
(dp459
g12
g13
sg14
S'Verdana'
p460
sg16
I400
sg17
g13
sg18
g13
sg19
S'/Library/Fonts/Verdana.ttf'
p461
sg21
g22
sbag7
(g8
g9
NtRp462
(dp463
g12
g13
sg14
S'Farisi'
p464
sg16
I400
sg17
g13
sg18
g13
sg19
S'/Library/Fonts/Farisi.ttf'
p465
sg21
g22
sbag7
(g8
g9
NtRp466
(dp467
g12
g13
sg14
S'System Font'
p468
sg16
I400
sg17
g13
sg18
g13
sg19
S'/System/Library/Fonts/SFNSText.ttf'
p469
sg21
g22
sbag7
(g8
g9
NtRp470
(dp471
g12
g13
sg14
S'System Font'
p472
sg16
I400
sg17
g13
sg18
g13
sg19
S'/System/Library/Fonts/SFNSDisplay-ThinG2.otf'
p473
sg21
g22
sbag7
(g8
g9
NtRp474
(dp475
g12
g13
sg14
S'.SF Compact Display'
p476
sg16
I400
sg17
g13
sg18
g13
sg19
S'/System/Library/Fonts/SFCompactDisplay-Light.otf'
p477
sg21
g22
sbag7
(g8
g9
NtRp478
(dp479
g12
g13
sg14
S'Gurmukhi MT'
p480
sg16
I400
sg17
g13
sg18
g13
sg19
S'/Library/Fonts/Gurmukhi.ttf'
p481
sg21
g22
sbag7
(g8
g9
NtRp482
(dp483
g12
g13
sg14
S'Bodoni 72 Smallcaps'
p484
sg16
I400
sg17
g13
sg18
g13
sg19
S'/Library/Fonts/Bodoni 72 Smallcaps Book.ttf'
p485
sg21
g22
sbag7
(g8
g9
NtRp486
(dp487
g12
g13
sg14
S'Skia'
p488
sg16
I400
sg17
g13
sg18
g13
sg19
S'/Library/Fonts/Skia.ttf'
p489
sg21
g22
sbag7
(g8
g9
NtRp490
(dp491
g12
g13
sg14
S'.SF NS Rounded'
p492
sg16
I400
sg17
g13
sg18
g13
sg19
S'/System/Library/Fonts/SFNSRounded.ttf'
p493
sg21
g22
sbag7
(g8
g9
NtRp494
(dp495
g12
g74
sg14
S'Arial'
p496
sg16
I400
sg17
g13
sg18
g13
sg19
S'/Library/Fonts/Arial Italic.ttf'
p497
sg21
g22
sbag7
(g8
g9
NtRp498
(dp499
g12
g74
sg14
S'STIXNonUnicode'
p500
sg16
I700
sg17
g13
sg18
g13
sg19
S'/Library/Fonts/STIXNonUniBolIta.otf'
p501
sg21
g22
sbag7
(g8
g9
NtRp502
(dp503
g12
g13
sg14
S'Apple Braille'
p504
sg16
I400
sg17
g13
sg18
g13
sg19
S'/System/Library/Fonts/Apple Braille Pinpoint 8 Dot.ttf'
p505
sg21
g22
sbag7
(g8
g9
NtRp506
(dp507
g12
g74
sg14
S'Georgia'
p508
sg16
I400
sg17
g13
sg18
g13
sg19
S'/Library/Fonts/Georgia Italic.ttf'
p509
sg21
g22
sbag7
(g8
g9
NtRp510
(dp511
g12
g13
sg14
S'Apple Braille'
p512
sg16
I400
sg17
g13
sg18
g13
sg19
S'/System/Library/Fonts/Apple Braille Outline 6 Dot.ttf'
p513
sg21
g22
sbag7
(g8
g9
NtRp514
(dp515
g12
g74
sg14
S'Courier New'
p516
sg16
I700
sg17
g13
sg18
g13
sg19
S'/Library/Fonts/Courier New Bold Italic.ttf'
p517
sg21
g22
sbag7
(g8
g9
NtRp518
(dp519
g12
g13
sg14
S'.SF NS Symbols'
p520
sg16
I400
sg17
g13
sg18
g13
sg19
S'/System/Library/Fonts/SFNSSymbols-Medium.otf'
p521
sg21
g22
sbag7
(g8
g9
NtRp522
(dp523
g12
g13
sg14
S'Arial Rounded MT Bold'
p524
sg16
I700
sg17
g13
sg18
g13
sg19
S'/Library/Fonts/Arial Rounded Bold.ttf'
p525
sg21
g22
sbag7
(g8
g9
NtRp526
(dp527
g12
g13
sg14
S'.SF NS Display Condensed'
p528
sg16
I400
sg17
g13
sg18
g13
sg19
S'/System/Library/Fonts/SFNSDisplayCondensed-Regular.otf'
p529
sg21
g22
sbag7
(g8
g9
NtRp530
(dp531
g12
g13
sg14
S'.SF NS Display Condensed'
p532
sg16
I400
sg17
g13
sg18
g13
sg19
S'/System/Library/Fonts/SFNSDisplayCondensed-Heavy.otf'
p533
sg21
g22
sbag7
(g8
g9
NtRp534
(dp535
g12
g74
sg14
S'Verdana'
p536
sg16
I700
sg17
g13
sg18
g13
sg19
S'/Library/Fonts/Verdana Bold Italic.ttf'
p537
sg21
g22
sbag7
(g8
g9
NtRp538
(dp539
g12
g13
sg14
S'.SF Compact Display'
p540
sg16
I400
sg17
g13
sg18
g13
sg19
S'/System/Library/Fonts/SFCompactDisplay-Black.otf'
p541
sg21
g22
sbag7
(g8
g9
NtRp542
(dp543
g12
g13
sg14
S'.SF NS Display Condensed'
p544
sg16
I400
sg17
g13
sg18
g13
sg19
S'/System/Library/Fonts/SFNSDisplayCondensed-Thin.otf'
p545
sg21
g22
sbag7
(g8
g9
NtRp546
(dp547
g12
g13
sg14
S'.SF NS Symbols'
p548
sg16
I400
sg17
g13
sg18
g13
sg19
S'/System/Library/Fonts/SFNSSymbols-Black.otf'
p549
sg21
g22
sbag7
(g8
g9
NtRp550
(dp551
g12
g13
sg14
S'.SF NS Display Condensed'
p552
sg16
I400
sg17
g13
sg18
g13
sg19
S'/System/Library/Fonts/SFNSDisplayCondensed-Black.otf'
p553
sg21
g22
sbag7
(g8
g9
NtRp554
(dp555
g12
g13
sg14
S'.SF NS Symbols'
p556
sg16
I400
sg17
g13
sg18
g13
sg19
S'/System/Library/Fonts/SFNSSymbols-Heavy.otf'
p557
sg21
g22
sbag7
(g8
g9
NtRp558
(dp559
g12
g13
sg14
S'STIXIntegralsSm'
p560
sg16
I400
sg17
g13
sg18
g13
sg19
S'/Library/Fonts/STIXIntSmReg.otf'
p561
sg21
g22
sbag7
(g8
g9
NtRp562
(dp563
g12
g13
sg14
S'Kokonor'
p564
sg16
I400
sg17
g13
sg18
g13
sg19
S'/Library/Fonts/Kokonor.ttf'
p565
sg21
g22
sbag7
(g8
g9
NtRp566
(dp567
g12
g74
sg14
S'Verdana'
p568
sg16
I400
sg17
g13
sg18
g13
sg19
S'/Library/Fonts/Verdana Italic.ttf'
p569
sg21
g22
sbag7
(g8
g9
NtRp570
(dp571
g12
g13
sg14
S'STIXGeneral'
p572
sg16
I700
sg17
g13
sg18
g13
sg19
S'/Library/Fonts/STIXGeneralBol.otf'
p573
sg21
g22
sbag7
(g8
g9
NtRp574
(dp575
g12
g13
sg14
S'Apple Braille'
p576
sg16
I400
sg17
g13
sg18
g13
sg19
S'/System/Library/Fonts/Apple Braille.ttf'
p577
sg21
g22
sbag7
(g8
g9
NtRp578
(dp579
g12
g13
sg14
S'System Font'
p580
sg16
I400
sg17
g13
sg18
g13
sg19
S'/System/Library/Fonts/SFNSDisplay-LightItalic.otf'
p581
sg21
g22
sbag7
(g8
g9
NtRp582
(dp583
g12
g13
sg14
S'.SF Compact Text'
p584
sg16
I400
sg17
g13
sg18
g13
sg19
S'/System/Library/Fonts/SFCompactText-Heavy.otf'
p585
sg21
g22
sbag7
(g8
g9
NtRp586
(dp587
g12
g13
sg14
S'System Font'
p588
sg16
I400
sg17
g13
sg18
g13
sg19
S'/System/Library/Fonts/SFNSDisplay-HeavyItalic.otf'
p589
sg21
g22
sbag7
(g8
g9
NtRp590
(dp591
g12
g13
sg14
S'Chalkduster'
p592
sg16
I400
sg17
g13
sg18
g13
sg19
S'/Library/Fonts/Chalkduster.ttf'
p593
sg21
g22
sbag7
(g8
g9
NtRp594
(dp595
g12
g13
sg14
S'STIXNonUnicode'
p596
sg16
I400
sg17
g13
sg18
g13
sg19
S'/Library/Fonts/STIXNonUni.otf'
p597
sg21
g22
sbag7
(g8
g9
NtRp598
(dp599
g12
g13
sg14
S'.SF Compact Rounded'
p600
sg16
I400
sg17
g13
sg18
g13
sg19
S'/System/Library/Fonts/SFCompactRounded-Black.otf'
p601
sg21
g22
sbag7
(g8
g9
NtRp602
(dp603
g12
g74
sg14
S'STIXNonUnicode'
p604
sg16
I400
sg17
g13
sg18
g13
sg19
S'/Library/Fonts/STIXNonUniIta.otf'
p605
sg21
g22
sbag7
(g8
g9
NtRp606
(dp607
g12
g13
sg14
S'STIXIntegralsUp'
p608
sg16
I400
sg17
g13
sg18
g13
sg19
S'/Library/Fonts/STIXIntUpReg.otf'
p609
sg21
g22
sbag7
(g8
g9
NtRp610
(dp611
g12
g13
sg14
S'System Font'
p612
sg16
I400
sg17
g13
sg18
g13
sg19
S'/System/Library/Fonts/SFNSDisplay-ThinG3.otf'
p613
sg21
g22
sbag7
(g8
g9
NtRp614
(dp615
g12
g13
sg14
S'Comic Sans MS'
p616
sg16
I700
sg17
g13
sg18
g13
sg19
S'/Library/Fonts/Comic Sans MS Bold.ttf'
p617
sg21
g22
sbag7
(g8
g9
NtRp618
(dp619
g12
g13
sg14
S'Trebuchet MS'
p620
sg16
I400
sg17
g13
sg18
g13
sg19
S'/Library/Fonts/Trebuchet MS.ttf'
p621
sg21
g22
sbag7
(g8
g9
NtRp622
(dp623
g12
g13
sg14
S'.SF NS Symbols'
p624
sg16
I400
sg17
g13
sg18
g13
sg19
S'/System/Library/Fonts/SFNSSymbols-Bold.otf'
p625
sg21
g22
sbag7
(g8
g9
NtRp626
(dp627
g12
g13
sg14
S'.SF Compact Rounded'
p628
sg16
I400
sg17
g13
sg18
g13
sg19
S'/System/Library/Fonts/SFCompactRounded-Thin.otf'
p629
sg21
g22
sbag7
(g8
g9
NtRp630
(dp631
g12
g13
sg14
S'Courier New'
p632
sg16
I700
sg17
g13
sg18
g13
sg19
S'/Library/Fonts/Courier New Bold.ttf'
p633
sg21
g22
sbag7
(g8
g9
NtRp634
(dp635
g12
g13
sg14
S'Big Caslon'
p636
sg16
I500
sg17
g13
sg18
g13
sg19
S'/Library/Fonts/BigCaslon.ttf'
p637
sg21
g22
sbag7
(g8
g9
NtRp638
(dp639
g12
g13
sg14
S'.SF NS Text Condensed'
p640
sg16
I400
sg17
g13
sg18
g13
sg19
S'/System/Library/Fonts/SFNSTextCondensed-Semibold.otf'
p641
sg21
g22
sbag7
(g8
g9
NtRp642
(dp643
g12
g13
sg14
S'Ayuthaya'
p644
sg16
I400
sg17
g13
sg18
g13
sg19
S'/Library/Fonts/Ayuthaya.ttf'
p645
sg21
g22
sbag7
(g8
g9
NtRp646
(dp647
g12
g13
sg14
S'.SF Compact Text'
p648
sg16
I400
sg17
g13
sg18
g13
sg19
S'/System/Library/Fonts/SFCompactText-SemiboldItalic.otf'
p649
sg21
g22
sbag7
(g8
g9
NtRp650
(dp651
g12
g13
sg14
S'.SF Compact Rounded'
p652
sg16
I400
sg17
g13
sg18
g13
sg19
S'/System/Library/Fonts/SFCompactRounded-Bold.otf'
p653
sg21
g22
sbag7
(g8
g9
NtRp654
(dp655
g12
g13
sg14
S'STIXNonUnicode'
p656
sg16
I700
sg17
g13
sg18
g13
sg19
S'/Library/Fonts/STIXNonUniBol.otf'
p657
sg21
g22
sbag7
(g8
g9
NtRp658
(dp659
g12
g13
sg14
S'Webdings'
p660
sg16
I400
sg17
g13
sg18
g13
sg19
S'/Library/Fonts/Webdings.ttf'
p661
sg21
g22
sbag7
(g8
g9
NtRp662
(dp663
g12
g13
sg14
S'System Font'
p664
sg16
I400
sg17
g13
sg18
g13
sg19
S'/System/Library/Fonts/SFNSDisplay-MediumItalic.otf'
p665
sg21
g22
sbag7
(g8
g9
NtRp666
(dp667
g12
g13
sg14
S'.SF Compact Text'
p668
sg16
I400
sg17
g13
sg18
g13
sg19
S'/System/Library/Fonts/SFCompactText-RegularItalic.otf'
p669
sg21
g22
sbag7
(g8
g9
NtRp670
(dp671
g12
g13
sg14
S'Symbol'
p672
sg16
I400
sg17
g13
sg18
g13
sg19
S'/System/Library/Fonts/Symbol.ttf'
p673
sg21
g22
sbag7
(g8
g9
NtRp674
(dp675
g12
g13
sg14
S'System Font'
p676
sg16
I400
sg17
g13
sg18
g13
sg19
S'/System/Library/Fonts/SFNSDisplay-UltralightItalic.otf'
p677
sg21
g22
sbag7
(g8
g9
NtRp678
(dp679
g12
g13
sg14
S'Wingdings 2'
p680
sg16
I400
sg17
g13
sg18
g13
sg19
S'/Library/Fonts/Wingdings 2.ttf'
p681
sg21
g22
sbag7
(g8
g9
NtRp682
(dp683
g12
g13
sg14
S'Tahoma'
p684
sg16
I400
sg17
g13
sg18
g13
sg19
S'/Library/Fonts/Tahoma.ttf'
p685
sg21
g22
sbag7
(g8
g9
NtRp686
(dp687
g12
g74
sg14
S'Brush Script MT'
p688
sg16
I400
sg17
g13
sg18
g13
sg19
S'/Library/Fonts/Brush Script.ttf'
p689
sg21
g22
sbag7
(g8
g9
NtRp690
(dp691
g12
g13
sg14
S'.SF NS Symbols'
p692
sg16
I400
sg17
g13
sg18
g13
sg19
S'/System/Library/Fonts/SFNSSymbols-Light.otf'
p693
sg21
g22
sbag7
(g8
g9
NtRp694
(dp695
g12
g13
sg14
S'.Keyboard'
p696
sg16
I400
sg17
g13
sg18
g13
sg19
S'/System/Library/Fonts/Keyboard.ttf'
p697
sg21
g22
sbag7
(g8
g9
NtRp698
(dp699
g12
g13
sg14
S'.SF Compact Text'
p700
sg16
I400
sg17
g13
sg18
g13
sg19
S'/System/Library/Fonts/SFCompactText-Medium.otf'
p701
sg21
g22
sbag7
(g8
g9
NtRp702
(dp703
g12
g13
sg14
S'.SF NS Symbols'
p704
sg16
I400
sg17
g13
sg18
g13
sg19
S'/System/Library/Fonts/SFNSSymbols-Semibold.otf'
p705
sg21
g22
sbag7
(g8
g9
NtRp706
(dp707
g12
g13
sg14
S'STIXSizeOneSym'
p708
sg16
I400
sg17
g13
sg18
g13
sg19
S'/Library/Fonts/STIXSizOneSymReg.otf'
p709
sg21
g22
sbag7
(g8
g9
NtRp710
(dp711
g12
g13
sg14
S'STIXIntegralsUpSm'
p712
sg16
I400
sg17
g13
sg18
g13
sg19
S'/Library/Fonts/STIXIntUpSmReg.otf'
p713
sg21
g22
sbag7
(g8
g9
NtRp714
(dp715
g12
g74
sg14
S'Courier New'
p716
sg16
I400
sg17
g13
sg18
g13
sg19
S'/Library/Fonts/Courier New Italic.ttf'
p717
sg21
g22
sbag7
(g8
g9
NtRp718
(dp719
g12
g13
sg14
S'Khmer Sangam MN'
p720
sg16
I400
sg17
g13
sg18
g13
sg19
S'/Library/Fonts/Khmer Sangam MN.ttf'
p721
sg21
g22
sbag7
(g8
g9
NtRp722
(dp723
g12
g13
sg14
S'Microsoft Sans Serif'
p724
sg16
I400
sg17
g13
sg18
g13
sg19
S'/Library/Fonts/Microsoft Sans Serif.ttf'
p725
sg21
g22
sbag7
(g8
g9
NtRp726
(dp727
g12
g13
sg14
S'STIXIntegralsUpD'
p728
sg16
I700
sg17
g13
sg18
g13
sg19
S'/Library/Fonts/STIXIntUpDBol.otf'
p729
sg21
g22
sbag7
(g8
g9
NtRp730
(dp731
g12
g13
sg14
S'.SF Compact Text'
p732
sg16
I400
sg17
g13
sg18
g13
sg19
S'/System/Library/Fonts/SFCompactText-Light.otf'
p733
sg21
g22
sbag7
(g8
g9
NtRp734
(dp735
g12
g13
sg14
S'STIXGeneral'
p736
sg16
I400
sg17
g13
sg18
g13
sg19
S'/Library/Fonts/STIXGeneral.otf'
p737
sg21
g22
sbag7
(g8
g9
NtRp738
(dp739
g12
g13
sg14
S'Andale Mono'
p740
sg16
I400
sg17
g13
sg18
g13
sg19
S'/Library/Fonts/Andale Mono.ttf'
p741
sg21
g22
sbag7
(g8
g9
NtRp742
(dp743
g12
g13
sg14
S'Arial Black'
p744
sg16
I900
sg17
g13
sg18
g13
sg19
S'/Library/Fonts/Arial Black.ttf'
p745
sg21
g22
sbag7
(g8
g9
NtRp746
(dp747
g12
g13
sg14
S'.SF Compact Display'
p748
sg16
I400
sg17
g13
sg18
g13
sg19
S'/System/Library/Fonts/SFCompactDisplay-Ultralight.otf'
p749
sg21
g22
sbag7
(g8
g9
NtRp750
(dp751
g12
g13
sg14
S'.SF Compact Display'
p752
sg16
I400
sg17
g13
sg18
g13
sg19
S'/System/Library/Fonts/SFCompactDisplay-Thin.otf'
p753
sg21
g22
sbag7
(g8
g9
NtRp754
(dp755
g12
g74
sg14
S'STIXGeneral'
p756
sg16
I400
sg17
g13
sg18
g13
sg19
S'/Library/Fonts/STIXGeneralItalic.otf'
p757
sg21
g22
sbag7
(g8
g9
NtRp758
(dp759
g12
g13
sg14
S'Herculanum'
p760
sg16
I400
sg17
g13
sg18
g13
sg19
S'/Library/Fonts/Herculanum.ttf'
p761
sg21
g22
sbag7
(g8
g9
NtRp762
(dp763
g12
g13
sg14
S'System Font'
p764
sg16
I400
sg17
g13
sg18
g13
sg19
S'/System/Library/Fonts/SFNSDisplay-ThinG4.otf'
p765
sg21
g22
sbag7
(g8
g9
NtRp766
(dp767
g12
g13
sg14
S'.SF NS Display Condensed'
p768
sg16
I400
sg17
g13
sg18
g13
sg19
S'/System/Library/Fonts/SFNSDisplayCondensed-Medium.otf'
p769
sg21
g22
sbag7
(g8
g9
NtRp770
(dp771
g12
g13
sg14
S'.SF NS Text Condensed'
p772
sg16
I400
sg17
g13
sg18
g13
sg19
S'/System/Library/Fonts/SFNSTextCondensed-Light.otf'
p773
sg21
g22
sbag7
(g8
g9
NtRp774
(dp775
g12
g13
sg14
S'STIXSizeFourSym'
p776
sg16
I400
sg17
g13
sg18
g13
sg19
S'/Library/Fonts/STIXSizFourSymReg.otf'
p777
sg21
g22
sbag7
(g8
g9
NtRp778
(dp779
g12
g13
sg14
S'Apple Chancery'
p780
sg16
I400
sg17
g13
sg18
g13
sg19
S'/Library/Fonts/Apple Chancery.ttf'
p781
sg21
g22
sbag7
(g8
g9
NtRp782
(dp783
g12
g13
sg14
S'.SF Compact Text'
p784
sg16
I400
sg17
g13
sg18
g13
sg19
S'/System/Library/Fonts/SFCompactText-LightItalic.otf'
p785
sg21
g22
sbag7
(g8
g9
NtRp786
(dp787
g12
g13
sg14
S'Wingdings 3'
p788
sg16
I400
sg17
g13
sg18
g13
sg19
S'/Library/Fonts/Wingdings 3.ttf'
p789
sg21
g22
sbag7
(g8
g9
NtRp790
(dp791
g12
g74
sg14
S'STIXGeneral'
p792
sg16
I700
sg17
g13
sg18
g13
sg19
S'/Library/Fonts/STIXGeneralBolIta.otf'
p793
sg21
g22
sbag7
(g8
g9
NtRp794
(dp795
g12
g13
sg14
S'.SF Compact Display'
p796
sg16
I400
sg17
g13
sg18
g13
sg19
S'/System/Library/Fonts/SFCompactDisplay-Heavy.otf'
p797
sg21
g22
sbag7
(g8
g9
NtRp798
(dp799
g12
g13
sg14
S'STIXIntegralsUpSm'
p800
sg16
I700
sg17
g13
sg18
g13
sg19
S'/Library/Fonts/STIXIntUpSmBol.otf'
p801
sg21
g22
sbag7
(g8
g9
NtRp802
(dp803
g12
g13
sg14
S'Lao Sangam MN'
p804
sg16
I400
sg17
g13
sg18
g13
sg19
S'/Library/Fonts/Lao Sangam MN.ttf'
p805
sg21
g22
sbag7
(g8
g9
NtRp806
(dp807
g12
g13
sg14
S'Trattatello'
p808
sg16
I400
sg17
g13
sg18
g13
sg19
S'/Library/Fonts/Trattatello.ttf'
p809
sg21
g22
sbag7
(g8
g9
NtRp810
(dp811
g12
g13
sg14
S'.SF Compact Text'
p812
sg16
I400
sg17
g13
sg18
g13
sg19
S'/System/Library/Fonts/SFCompactText-MediumItalic.otf'
p813
sg21
g22
sbag7
(g8
g9
NtRp814
(dp815
g12
g13
sg14
S'STIXSizeOneSym'
p816
sg16
I700
sg17
g13
sg18
g13
sg19
S'/Library/Fonts/STIXSizOneSymBol.otf'
p817
sg21
g22
sbag7
(g8
g9
NtRp818
(dp819
g12
g13
sg14
S'Silom'
p820
sg16
I400
sg17
g13
sg18
g13
sg19
S'/Library/Fonts/Silom.ttf'
p821
sg21
g22
sbag7
(g8
g9
NtRp822
(dp823
g12
g13
sg14
S'Comic Sans MS'
p824
sg16
I400
sg17
g13
sg18
g13
sg19
S'/Library/Fonts/Comic Sans MS.ttf'
p825
sg21
g22
sbag7
(g8
g9
NtRp826
(dp827
g12
g13
sg14
S'STIXSizeTwoSym'
p828
sg16
I400
sg17
g13
sg18
g13
sg19
S'/Library/Fonts/STIXSizTwoSymReg.otf'
p829
sg21
g22
sbag7
(g8
g9
NtRp830
(dp831
g12
g13
sg14
S'Bodoni Ornaments'
p832
sg16
I400
sg17
g13
sg18
g13
sg19
S'/Library/Fonts/Bodoni Ornaments.ttf'
p833
sg21
g22
sbag7
(g8
g9
NtRp834
(dp835
g12
g13
sg14
S'STIXSizeFourSym'
p836
sg16
I700
sg17
g13
sg18
g13
sg19
S'/Library/Fonts/STIXSizFourSymBol.otf'
p837
sg21
g22
sbag7
(g8
g9
NtRp838
(dp839
g12
g13
sg14
S'Arial'
p840
sg16
I700
sg17
g13
sg18
g13
sg19
S'/Library/Fonts/Arial Bold.ttf'
p841
sg21
g22
sbag7
(g8
g9
NtRp842
(dp843
g12
g13
sg14
S'Georgia'
p844
sg16
I700
sg17
g13
sg18
g13
sg19
S'/Library/Fonts/Georgia Bold.ttf'
p845
sg21
g22
sbag7
(g8
g9
NtRp846
(dp847
g12
g13
sg14
S'STIXIntegralsD'
p848
sg16
I400
sg17
g13
sg18
g13
sg19
S'/Library/Fonts/STIXIntDReg.otf'
p849
sg21
g22
sbag7
(g8
g9
NtRp850
(dp851
g12
g13
sg14
S'.SF NS Symbols'
p852
sg16
I400
sg17
g13
sg18
g13
sg19
S'/System/Library/Fonts/SFNSSymbols-Regular.otf'
p853
sg21
g22
sbag7
(g8
g9
NtRp854
(dp855
g12
g13
sg14
S'Wingdings'
p856
sg16
I400
sg17
g13
sg18
g13
sg19
S'/Library/Fonts/Wingdings.ttf'
p857
sg21
g22
sbag7
(g8
g9
NtRp858
(dp859
g12
g13
sg14
S'Impact'
p860
sg16
I400
sg17
g13
sg18
g13
sg19
S'/Library/Fonts/Impact.ttf'
p861
sg21
g22
sbag7
(g8
g9
NtRp862
(dp863
g12
g13
sg14
S'Tahoma'
p864
sg16
I700
sg17
g13
sg18
g13
sg19
S'/Library/Fonts/Tahoma Bold.ttf'
p865
sg21
g22
sbag7
(g8
g9
NtRp866
(dp867
g12
g74
sg14
S'Georgia'
p868
sg16
I700
sg17
g13
sg18
g13
sg19
S'/Library/Fonts/Georgia Bold Italic.ttf'
p869
sg21
g22
sbag7
(g8
g9
NtRp870
(dp871
g12
g13
sg14
S'STIXIntegralsUpD'
p872
sg16
I400
sg17
g13
sg18
g13
sg19
S'/Library/Fonts/STIXIntUpDReg.otf'
p873
sg21
g22
sbag7
(g8
g9
NtRp874
(dp875
g12
g13
sg14
S'Sathu'
p876
sg16
I400
sg17
g13
sg18
g13
sg19
S'/Library/Fonts/Sathu.ttf'
p877
sg21
g22
sbag7
(g8
g9
NtRp878
(dp879
g12
g13
sg14
S'.SF Compact Rounded'
p880
sg16
I400
sg17
g13
sg18
g13
sg19
S'/System/Library/Fonts/SFCompactRounded-Regular.otf'
p881
sg21
g22
sbag7
(g8
g9
NtRp882
(dp883
g12
g13
sg14
S'System Font'
p884
sg16
I400
sg17
g13
sg18
g13
sg19
S'/System/Library/Fonts/SFNSDisplay-ThinItalic.otf'
p885
sg21
g22
sbasS'defaultFamily'
p886
(dp887
S'afm'
p888
S'Helvetica'
p889
sS'ttf'
p890
S'Bitstream Vera Sans'
p891
ssS'ttffiles'
p892
(lp893
S'/System/Library/Frameworks/Python.framework/Versions/2.7/Extras/lib/python/matplotlib/mpl-data/fonts/ttf/cmex10.ttf'
p894
aS'/System/Library/Frameworks/Python.framework/Versions/2.7/Extras/lib/python/matplotlib/mpl-data/fonts/ttf/VeraBI.ttf'
p895
aS'/System/Library/Frameworks/Python.framework/Versions/2.7/Extras/lib/python/matplotlib/mpl-data/fonts/ttf/STIXNonUni.ttf'
p896
aS'/System/Library/Frameworks/Python.framework/Versions/2.7/Extras/lib/python/matplotlib/mpl-data/fonts/ttf/STIXNonUniBol.ttf'
p897
aS'/System/Library/Frameworks/Python.framework/Versions/2.7/Extras/lib/python/matplotlib/mpl-data/fonts/ttf/VeraMoBd.ttf'
p898
aS'/System/Library/Frameworks/Python.framework/Versions/2.7/Extras/lib/python/matplotlib/mpl-data/fonts/ttf/cmr10.ttf'
p899
aS'/System/Library/Frameworks/Python.framework/Versions/2.7/Extras/lib/python/matplotlib/mpl-data/fonts/ttf/STIXGeneral.ttf'
p900
aS'/System/Library/Frameworks/Python.framework/Versions/2.7/Extras/lib/python/matplotlib/mpl-data/fonts/ttf/VeraMoIt.ttf'
p901
aS'/System/Library/Frameworks/Python.framework/Versions/2.7/Extras/lib/python/matplotlib/mpl-data/fonts/ttf/VeraSe.ttf'
p902
aS'/System/Library/Frameworks/Python.framework/Versions/2.7/Extras/lib/python/matplotlib/mpl-data/fonts/ttf/STIXSizFiveSymReg.ttf'
p903
aS'/System/Library/Frameworks/Python.framework/Versions/2.7/Extras/lib/python/matplotlib/mpl-data/fonts/ttf/VeraMono.ttf'
p904
aS'/System/Library/Frameworks/Python.framework/Versions/2.7/Extras/lib/python/matplotlib/mpl-data/fonts/ttf/VeraMoBI.ttf'
p905
aS'/System/Library/Frameworks/Python.framework/Versions/2.7/Extras/lib/python/matplotlib/mpl-data/fonts/ttf/STIXGeneralBol.ttf'
p906
aS'/System/Library/Frameworks/Python.framework/Versions/2.7/Extras/lib/python/matplotlib/mpl-data/fonts/ttf/STIXGeneralItalic.ttf'
p907
aS'/System/Library/Frameworks/Python.framework/Versions/2.7/Extras/lib/python/matplotlib/mpl-data/fonts/ttf/STIXSizFourSymReg.ttf'
p908
aS'/System/Library/Frameworks/Python.framework/Versions/2.7/Extras/lib/python/matplotlib/mpl-data/fonts/ttf/STIXSizThreeSymBol.ttf'
p909
aS'/System/Library/Frameworks/Python.framework/Versions/2.7/Extras/lib/python/matplotlib/mpl-data/fonts/ttf/STIXSizOneSymBol.ttf'
p910
aS'/System/Library/Frameworks/Python.framework/Versions/2.7/Extras/lib/python/matplotlib/mpl-data/fonts/ttf/STIXSizFourSymBol.ttf'
p911
aS'/System/Library/Frameworks/Python.framework/Versions/2.7/Extras/lib/python/matplotlib/mpl-data/fonts/ttf/VeraBd.ttf'
p912
aS'/System/Library/Frameworks/Python.framework/Versions/2.7/Extras/lib/python/matplotlib/mpl-data/fonts/ttf/cmsy10.ttf'
p913
aS'/System/Library/Frameworks/Python.framework/Versions/2.7/Extras/lib/python/matplotlib/mpl-data/fonts/ttf/STIXSizTwoSymReg.ttf'
p914
aS'/System/Library/Frameworks/Python.framework/Versions/2.7/Extras/lib/python/matplotlib/mpl-data/fonts/ttf/STIXNonUniBolIta.ttf'
p915
aS'/System/Library/Frameworks/Python.framework/Versions/2.7/Extras/lib/python/matplotlib/mpl-data/fonts/ttf/cmb10.ttf'
p916
aS'/System/Library/Frameworks/Python.framework/Versions/2.7/Extras/lib/python/matplotlib/mpl-data/fonts/ttf/cmmi10.ttf'
p917
aS'/System/Library/Frameworks/Python.framework/Versions/2.7/Extras/lib/python/matplotlib/mpl-data/fonts/ttf/VeraIt.ttf'
p918
aS'/System/Library/Frameworks/Python.framework/Versions/2.7/Extras/lib/python/matplotlib/mpl-data/fonts/ttf/STIXSizOneSymReg.ttf'
p919
aS'/System/Library/Frameworks/Python.framework/Versions/2.7/Extras/lib/python/matplotlib/mpl-data/fonts/ttf/Vera.ttf'
p920
aS'/System/Library/Frameworks/Python.framework/Versions/2.7/Extras/lib/python/matplotlib/mpl-data/fonts/ttf/cmss10.ttf'
p921
aS'/System/Library/Frameworks/Python.framework/Versions/2.7/Extras/lib/python/matplotlib/mpl-data/fonts/ttf/VeraSeBd.ttf'
p922
aS'/System/Library/Frameworks/Python.framework/Versions/2.7/Extras/lib/python/matplotlib/mpl-data/fonts/ttf/STIXSizTwoSymBol.ttf'
p923
aS'/System/Library/Frameworks/Python.framework/Versions/2.7/Extras/lib/python/matplotlib/mpl-data/fonts/ttf/STIXNonUniIta.ttf'
p924
aS'/System/Library/Frameworks/Python.framework/Versions/2.7/Extras/lib/python/matplotlib/mpl-data/fonts/ttf/cmtt10.ttf'
p925
aS'/System/Library/Frameworks/Python.framework/Versions/2.7/Extras/lib/python/matplotlib/mpl-data/fonts/ttf/STIXGeneralBolIta.ttf'
p926
aS'/System/Library/Frameworks/Python.framework/Versions/2.7/Extras/lib/python/matplotlib/mpl-data/fonts/ttf/STIXSizThreeSymReg.ttf'
p927
aS'/Library/Fonts/Trebuchet MS Italic.ttf'
p928
aS'/Library/Fonts/Hoefler Text Ornaments.ttf'
p929
aS'/System/Library/Fonts/SFCompactRounded-Heavy.otf'
p930
aS'/Library/Fonts/Times New Roman.ttf'
p931
aS'/System/Library/Fonts/SFCompactDisplay-Medium.otf'
p932
aS'/Library/Fonts/Verdana Bold.ttf'
p933
aS'/System/Library/Fonts/SFCompactRounded-Medium.otf'
p934
aS'/Library/Fonts/Arial Unicode.ttf'
p935
aS'/Library/Fonts/STIXSizThreeSymReg.otf'
p936
aS'/Library/Fonts/DIN Condensed Bold.ttf'
p937
aS'/System/Library/Fonts/SFNSDisplay-ThinG1.otf'
p938
aS'/System/Library/Fonts/SFNSDisplay-BoldItalic.otf'
p939
aS'/System/Library/Fonts/Apple Braille Pinpoint 6 Dot.ttf'
p940
aS'/Library/Fonts/Arial.ttf'
p941
aS'/System/Library/Fonts/SFCompactDisplay-Semibold.otf'
p942
aS'/Library/Fonts/AppleGothic.ttf'
p943
aS'/System/Library/Fonts/SFNSTextCondensed-Bold.otf'
p944
aS'/Library/Fonts/Arial Narrow.ttf'
p945
aS'/System/Library/Fonts/SFNSDisplayCondensed-Bold.otf'
p946
aS'/Library/Fonts/NISC18030.ttf'
p947
aS'/System/Library/Fonts/SFCompactRounded-Ultralight.otf'
p948
aS'/System/Library/Fonts/SFNSDisplayCondensed-Semibold.otf'
p949
aS'/Library/Fonts/AppleMyungjo.ttf'
p950
aS'/Library/Fonts/Mishafi Gold.ttf'
p951
aS'/System/Library/Fonts/ZapfDingbats.ttf'
p952
aS'/System/Library/Fonts/SFCompactRounded-Semibold.otf'
p953
aS'/System/Library/Fonts/SFCompactText-BoldItalic.otf'
p954
aS'/Library/Fonts/STIXIntDBol.otf'
p955
aS'/System/Library/Fonts/SFNSTextItalic.ttf'
p956
aS'/Library/Fonts/DIN Alternate Bold.ttf'
p957
aS'/System/Library/Fonts/SFCompactDisplay-Bold.otf'
p958
aS'/Library/Fonts/STIXSizThreeSymBol.otf'
p959
aS'/System/Library/Fonts/SFNSDisplay.ttf'
p960
aS'/Library/Fonts/Courier New.ttf'
p961
aS'/Library/Fonts/Arial Narrow Bold Italic.ttf'
p962
aS'/System/Library/Fonts/SFNSSymbols-Ultralight.otf'
p963
aS'/Library/Fonts/Luminari.ttf'
p964
aS'/Library/Fonts/Zapfino.ttf'
p965
aS'/Library/Fonts/Arial Narrow Bold.ttf'
p966
aS'/Library/Fonts/Times New Roman Italic.ttf'
p967
aS'/System/Library/Fonts/SFNSTextCondensed-Medium.otf'
p968
aS'/Library/Fonts/Krungthep.ttf'
p969
aS'/System/Library/Fonts/SFNSDisplayCondensed-Light.otf'
p970
aS'/Library/Fonts/STIXSizTwoSymBol.otf'
p971
aS'/Library/Fonts/STIXIntSmBol.otf'
p972
aS'/Library/Fonts/Diwan Thuluth.ttf'
p973
aS'/Library/Fonts/Trebuchet MS Bold.ttf'
p974
aS'/System/Library/Fonts/SFCompactText-HeavyItalic.otf'
p975
aS'/Library/Fonts/Bradley Hand Bold.ttf'
p976
aS'/System/Library/Fonts/Apple Symbols.ttf'
p977
aS'/System/Library/Fonts/SFNSDisplay-SemiboldItalic.otf'
p978
aS'/Library/Fonts/Times New Roman Bold Italic.ttf'
p979
aS'/System/Library/Fonts/SFNSDisplay-RegularItalic.otf'
p980
aS'/Library/Fonts/Arial Narrow Italic.ttf'
p981
aS'/System/Library/Fonts/SFCompactRounded-Light.otf'
p982
aS'/System/Library/Fonts/SFCompactDisplay-Regular.otf'
p983
aS'/System/Library/Fonts/SFNSDisplayCondensed-Ultralight.otf'
p984
aS'/System/Library/Fonts/Apple Braille Outline 8 Dot.ttf'
p985
aS'/System/Library/Fonts/SFNSTextCondensed-Heavy.otf'
p986
aS'/Library/Fonts/PlantagenetCherokee.ttf'
p987
aS'/Library/Fonts/Times New Roman Bold.ttf'
p988
aS'/Library/Fonts/Arial Bold Italic.ttf'
p989
aS'/System/Library/Fonts/SFNSTextCondensed-Regular.otf'
p990
aS'/System/Library/Fonts/SFNSSymbols-Thin.otf'
p991
aS'/Library/Fonts/STIXVar.otf'
p992
aS'/Library/Fonts/Mishafi.ttf'
p993
aS'/Library/Fonts/STIXVarBol.otf'
p994
aS'/Library/Fonts/Georgia.ttf'
p995
aS'/System/Library/Fonts/SFNSDisplay-BlackItalic.otf'
p996
aS'/System/Library/Fonts/SFCompactText-Regular.otf'
p997
aS'/System/Library/Fonts/SFCompactText-Semibold.otf'
p998
aS'/System/Library/Fonts/LastResort.otf'
p999
aS'/Library/Fonts/STIXIntUpBol.otf'
p1000
aS'/System/Library/Fonts/SFCompactText-Bold.otf'
p1001
aS'/Library/Fonts/Trebuchet MS Bold Italic.ttf'
p1002
aS'/Library/Fonts/STIXSizFiveSymReg.otf'
p1003
aS'/Library/Fonts/Verdana.ttf'
p1004
aS'/Library/Fonts/Farisi.ttf'
p1005
aS'/System/Library/Fonts/SFNSText.ttf'
p1006
aS'/System/Library/Fonts/SFNSDisplay-ThinG2.otf'
p1007
aS'/System/Library/Fonts/SFCompactDisplay-Light.otf'
p1008
aS'/Library/Fonts/Gurmukhi.ttf'
p1009
aS'/Library/Fonts/Bodoni 72 Smallcaps Book.ttf'
p1010
aS'/Library/Fonts/Skia.ttf'
p1011
aS'/System/Library/Fonts/SFNSRounded.ttf'
p1012
aS'/Library/Fonts/Arial Italic.ttf'
p1013
aS'/Library/Fonts/STIXNonUniBolIta.otf'
p1014
aS'/System/Library/Fonts/Apple Braille Pinpoint 8 Dot.ttf'
p1015
aS'/Library/Fonts/Georgia Italic.ttf'
p1016
aS'/System/Library/Fonts/Apple Braille Outline 6 Dot.ttf'
p1017
aS'/Library/Fonts/Courier New Bold Italic.ttf'
p1018
aS'/System/Library/Fonts/SFNSSymbols-Medium.otf'
p1019
aS'/Library/Fonts/Arial Rounded Bold.ttf'
p1020
aS'/System/Library/Fonts/SFNSDisplayCondensed-Regular.otf'
p1021
aS'/System/Library/Fonts/SFNSDisplayCondensed-Heavy.otf'
p1022
aS'/Library/Fonts/Verdana Bold Italic.ttf'
p1023
aS'/System/Library/Fonts/SFCompactDisplay-Black.otf'
p1024
aS'/System/Library/Fonts/SFNSDisplayCondensed-Thin.otf'
p1025
aS'/System/Library/Fonts/SFNSSymbols-Black.otf'
p1026
aS'/System/Library/Fonts/SFNSDisplayCondensed-Black.otf'
p1027
aS'/System/Library/Fonts/SFNSSymbols-Heavy.otf'
p1028
aS'/Library/Fonts/STIXIntSmReg.otf'
p1029
aS'/Library/Fonts/Kokonor.ttf'
p1030
aS'/Library/Fonts/Verdana Italic.ttf'
p1031
aS'/Library/Fonts/STIXGeneralBol.otf'
p1032
aS'/System/Library/Fonts/Apple Braille.ttf'
p1033
aS'/System/Library/Fonts/SFNSDisplay-LightItalic.otf'
p1034
aS'/System/Library/Fonts/SFCompactText-Heavy.otf'
p1035
aS'/System/Library/Fonts/SFNSDisplay-HeavyItalic.otf'
p1036
aS'/Library/Fonts/Chalkduster.ttf'
p1037
aS'/Library/Fonts/STIXNonUni.otf'
p1038
aS'/System/Library/Fonts/SFCompactRounded-Black.otf'
p1039
aS'/Library/Fonts/STIXNonUniIta.otf'
p1040
aS'/Library/Fonts/STIXIntUpReg.otf'
p1041
aS'/System/Library/Fonts/SFNSDisplay-ThinG3.otf'
p1042
aS'/Library/Fonts/Comic Sans MS Bold.ttf'
p1043
aS'/Library/Fonts/Trebuchet MS.ttf'
p1044
aS'/System/Library/Fonts/SFNSSymbols-Bold.otf'
p1045
aS'/System/Library/Fonts/SFCompactRounded-Thin.otf'
p1046
aS'/Library/Fonts/Courier New Bold.ttf'
p1047
aS'/Library/Fonts/BigCaslon.ttf'
p1048
aS'/System/Library/Fonts/SFNSTextCondensed-Semibold.otf'
p1049
aS'/Library/Fonts/Ayuthaya.ttf'
p1050
aS'/System/Library/Fonts/SFCompactText-SemiboldItalic.otf'
p1051
aS'/System/Library/Fonts/SFCompactRounded-Bold.otf'
p1052
aS'/Library/Fonts/STIXNonUniBol.otf'
p1053
aS'/Library/Fonts/Webdings.ttf'
p1054
aS'/System/Library/Fonts/SFNSDisplay-MediumItalic.otf'
p1055
aS'/System/Library/Fonts/SFCompactText-RegularItalic.otf'
p1056
aS'/System/Library/Fonts/Symbol.ttf'
p1057
aS'/System/Library/Fonts/SFNSDisplay-UltralightItalic.otf'
p1058
aS'/Library/Fonts/Wingdings 2.ttf'
p1059
aS'/Library/Fonts/Tahoma.ttf'
p1060
aS'/Library/Fonts/Brush Script.ttf'
p1061
aS'/System/Library/Fonts/SFNSSymbols-Light.otf'
p1062
aS'/System/Library/Fonts/Keyboard.ttf'
p1063
aS'/System/Library/Fonts/SFCompactText-Medium.otf'
p1064
aS'/System/Library/Fonts/SFNSSymbols-Semibold.otf'
p1065
aS'/Library/Fonts/STIXSizOneSymReg.otf'
p1066
aS'/Library/Fonts/STIXIntUpSmReg.otf'
p1067
aS'/Library/Fonts/Courier New Italic.ttf'
p1068
aS'/Library/Fonts/Khmer Sangam MN.ttf'
p1069
aS'/Library/Fonts/Microsoft Sans Serif.ttf'
p1070
aS'/Library/Fonts/STIXIntUpDBol.otf'
p1071
aS'/System/Library/Fonts/SFCompactText-Light.otf'
p1072
aS'/Library/Fonts/STIXGeneral.otf'
p1073
aS'/Library/Fonts/Andale Mono.ttf'
p1074
aS'/Library/Fonts/Arial Black.ttf'
p1075
aS'/System/Library/Fonts/SFCompactDisplay-Ultralight.otf'
p1076
aS'/System/Library/Fonts/SFCompactDisplay-Thin.otf'
p1077
aS'/Library/Fonts/STIXGeneralItalic.otf'
p1078
aS'/Library/Fonts/Herculanum.ttf'
p1079
aS'/System/Library/Fonts/SFNSDisplay-ThinG4.otf'
p1080
aS'/System/Library/Fonts/SFNSDisplayCondensed-Medium.otf'
p1081
aS'/System/Library/Fonts/SFNSTextCondensed-Light.otf'
p1082
aS'/Library/Fonts/STIXSizFourSymReg.otf'
p1083
aS'/Library/Fonts/Apple Chancery.ttf'
p1084
aS'/System/Library/Fonts/SFCompactText-LightItalic.otf'
p1085
aS'/Library/Fonts/Wingdings 3.ttf'
p1086
aS'/Library/Fonts/STIXGeneralBolIta.otf'
p1087
aS'/System/Library/Fonts/SFCompactDisplay-Heavy.otf'
p1088
aS'/Library/Fonts/STIXIntUpSmBol.otf'
p1089
aS'/Library/Fonts/Lao Sangam MN.ttf'
p1090
aS'/Library/Fonts/Trattatello.ttf'
p1091
aS'/System/Library/Fonts/SFCompactText-MediumItalic.otf'
p1092
aS'/Library/Fonts/STIXSizOneSymBol.otf'
p1093
aS'/Library/Fonts/Silom.ttf'
p1094
aS'/Library/Fonts/Comic Sans MS.ttf'
p1095
aS'/Library/Fonts/STIXSizTwoSymReg.otf'
p1096
aS'/Library/Fonts/Bodoni Ornaments.ttf'
p1097
aS'/Library/Fonts/STIXSizFourSymBol.otf'
p1098
aS'/Library/Fonts/Arial Bold.ttf'
p1099
aS'/Library/Fonts/Georgia Bold.ttf'
p1100
aS'/Library/Fonts/STIXIntDReg.otf'
p1101
aS'/System/Library/Fonts/SFNSSymbols-Regular.otf'
p1102
aS'/Library/Fonts/Wingdings.ttf'
p1103
aS'/Library/Fonts/Impact.ttf'
p1104
aS'/Library/Fonts/Tahoma Bold.ttf'
p1105
aS'/Library/Fonts/Georgia Bold Italic.ttf'
p1106
aS'/Library/Fonts/STIXIntUpDReg.otf'
p1107
aS'/Library/Fonts/Sathu.ttf'
p1108
aS'/System/Library/Fonts/SFCompactRounded-Regular.otf'
p1109
aS'/System/Library/Fonts/SFNSDisplay-ThinItalic.otf'
p1110
asS'_FontManager__default_weight'
p1111
g13
sS'_version'
p1112
I101
sS'ttf_lookup_cache'
p1113
(dp1114
sS'default_size'
p1115
NsS'defaultFont'
p1116
(dp1117
g888
S'/System/Library/Frameworks/Python.framework/Versions/2.7/Extras/lib/python/matplotlib/mpl-data/fonts/afm/phvl8a.afm'
p1118
sg890
g920
ssS'afmfiles'
p1119
(lp1120
g1118
aS'/System/Library/Frameworks/Python.framework/Versions/2.7/Extras/lib/python/matplotlib/mpl-data/fonts/afm/putbi8a.afm'
p1121
aS'/System/Library/Frameworks/Python.framework/Versions/2.7/Extras/lib/python/matplotlib/mpl-data/fonts/afm/pcrb8a.afm'
p1122
aS'/System/Library/Frameworks/Python.framework/Versions/2.7/Extras/lib/python/matplotlib/mpl-data/fonts/afm/phvbo8a.afm'
p1123
aS'/System/Library/Frameworks/Python.framework/Versions/2.7/Extras/lib/python/matplotlib/mpl-data/fonts/afm/phvb8an.afm'
p1124
aS'/System/Library/Frameworks/Python.framework/Versions/2.7/Extras/lib/python/matplotlib/mpl-data/fonts/pdfcorefonts/Symbol.afm'
p1125
aS'/System/Library/Frameworks/Python.framework/Versions/2.7/Extras/lib/python/matplotlib/mpl-data/fonts/afm/phvbo8an.afm'
p1126
aS'/System/Library/Frameworks/Python.framework/Versions/2.7/Extras/lib/python/matplotlib/mpl-data/fonts/pdfcorefonts/Times-Roman.afm'
p1127
aS'/System/Library/Frameworks/Python.framework/Versions/2.7/Extras/lib/python/matplotlib/mpl-data/fonts/afm/pncr8a.afm'
p1128
aS'/System/Library/Frameworks/Python.framework/Versions/2.7/Extras/lib/python/matplotlib/mpl-data/fonts/afm/phvlo8a.afm'
p1129
aS'/System/Library/Frameworks/Python.framework/Versions/2.7/Extras/lib/python/matplotlib/mpl-data/fonts/pdfcorefonts/Times-Italic.afm'
p1130
aS'/System/Library/Frameworks/Python.framework/Versions/2.7/Extras/lib/python/matplotlib/mpl-data/fonts/pdfcorefonts/Helvetica.afm'
p1131
aS'/System/Library/Frameworks/Python.framework/Versions/2.7/Extras/lib/python/matplotlib/mpl-data/fonts/afm/phvr8an.afm'
p1132
aS'/System/Library/Frameworks/Python.framework/Versions/2.7/Extras/lib/python/matplotlib/mpl-data/fonts/pdfcorefonts/Courier-Bold.afm'
p1133
aS'/System/Library/Frameworks/Python.framework/Versions/2.7/Extras/lib/python/matplotlib/mpl-data/fonts/pdfcorefonts/Helvetica-Bold.afm'
p1134
aS'/System/Library/Frameworks/Python.framework/Versions/2.7/Extras/lib/python/matplotlib/mpl-data/fonts/afm/ptmb8a.afm'
p1135
aS'/System/Library/Frameworks/Python.framework/Versions/2.7/Extras/lib/python/matplotlib/mpl-data/fonts/afm/pagd8a.afm'
p1136
aS'/System/Library/Frameworks/Python.framework/Versions/2.7/Extras/lib/python/matplotlib/mpl-data/fonts/pdfcorefonts/ZapfDingbats.afm'
p1137
aS'/System/Library/Frameworks/Python.framework/Versions/2.7/Extras/lib/python/matplotlib/mpl-data/fonts/afm/putr8a.afm'
p1138
aS'/System/Library/Frameworks/Python.framework/Versions/2.7/Extras/lib/python/matplotlib/mpl-data/fonts/afm/cmtt10.afm'
p1139
aS'/System/Library/Frameworks/Python.framework/Versions/2.7/Extras/lib/python/matplotlib/mpl-data/fonts/afm/pagko8a.afm'
p1140
aS'/System/Library/Frameworks/Python.framework/Versions/2.7/Extras/lib/python/matplotlib/mpl-data/fonts/afm/ptmr8a.afm'
p1141
aS'/System/Library/Frameworks/Python.framework/Versions/2.7/Extras/lib/python/matplotlib/mpl-data/fonts/pdfcorefonts/Helvetica-Oblique.afm'
p1142
aS'/System/Library/Frameworks/Python.framework/Versions/2.7/Extras/lib/python/matplotlib/mpl-data/fonts/afm/cmr10.afm'
p1143
aS'/System/Library/Frameworks/Python.framework/Versions/2.7/Extras/lib/python/matplotlib/mpl-data/fonts/pdfcorefonts/Courier-Oblique.afm'
p1144
aS'/System/Library/Frameworks/Python.framework/Versions/2.7/Extras/lib/python/matplotlib/mpl-data/fonts/afm/pcrro8a.afm'
p1145
aS'/System/Library/Frameworks/Python.framework/Versions/2.7/Extras/lib/python/matplotlib/mpl-data/fonts/afm/pcrbo8a.afm'
p1146
aS'/System/Library/Frameworks/Python.framework/Versions/2.7/Extras/lib/python/matplotlib/mpl-data/fonts/pdfcorefonts/Courier.afm'
p1147
aS'/System/Library/Frameworks/Python.framework/Versions/2.7/Extras/lib/python/matplotlib/mpl-data/fonts/afm/ptmbi8a.afm'
p1148
aS'/System/Library/Frameworks/Python.framework/Versions/2.7/Extras/lib/python/matplotlib/mpl-data/fonts/afm/pagdo8a.afm'
p1149
aS'/System/Library/Frameworks/Python.framework/Versions/2.7/Extras/lib/python/matplotlib/mpl-data/fonts/pdfcorefonts/Times-BoldItalic.afm'
p1150
aS'/System/Library/Frameworks/Python.framework/Versions/2.7/Extras/lib/python/matplotlib/mpl-data/fonts/afm/pbkd8a.afm'
p1151
aS'/System/Library/Frameworks/Python.framework/Versions/2.7/Extras/lib/python/matplotlib/mpl-data/fonts/afm/pplr8a.afm'
p1152
aS'/System/Library/Frameworks/Python.framework/Versions/2.7/Extras/lib/python/matplotlib/mpl-data/fonts/afm/pbkdi8a.afm'
p1153
aS'/System/Library/Frameworks/Python.framework/Versions/2.7/Extras/lib/python/matplotlib/mpl-data/fonts/afm/pagk8a.afm'
p1154
aS'/System/Library/Frameworks/Python.framework/Versions/2.7/Extras/lib/python/matplotlib/mpl-data/fonts/afm/putri8a.afm'
p1155
aS'/System/Library/Frameworks/Python.framework/Versions/2.7/Extras/lib/python/matplotlib/mpl-data/fonts/afm/phvr8a.afm'
p1156
aS'/System/Library/Frameworks/Python.framework/Versions/2.7/Extras/lib/python/matplotlib/mpl-data/fonts/afm/pbkl8a.afm'
p1157
aS'/System/Library/Frameworks/Python.framework/Versions/2.7/Extras/lib/python/matplotlib/mpl-data/fonts/afm/phvro8a.afm'
p1158
aS'/System/Library/Frameworks/Python.framework/Versions/2.7/Extras/lib/python/matplotlib/mpl-data/fonts/afm/psyr.afm'
p1159
aS'/System/Library/Frameworks/Python.framework/Versions/2.7/Extras/lib/python/matplotlib/mpl-data/fonts/pdfcorefonts/Times-Bold.afm'
p1160
aS'/System/Library/Frameworks/Python.framework/Versions/2.7/Extras/lib/python/matplotlib/mpl-data/fonts/afm/pplri8a.afm'
p1161
aS'/System/Library/Frameworks/Python.framework/Versions/2.7/Extras/lib/python/matplotlib/mpl-data/fonts/afm/pncb8a.afm'
p1162
aS'/System/Library/Frameworks/Python.framework/Versions/2.7/Extras/lib/python/matplotlib/mpl-data/fonts/afm/putb8a.afm'
p1163
aS'/System/Library/Frameworks/Python.framework/Versions/2.7/Extras/lib/python/matplotlib/mpl-data/fonts/afm/pncbi8a.afm'
p1164
aS'/System/Library/Frameworks/Python.framework/Versions/2.7/Extras/lib/python/matplotlib/mpl-data/fonts/afm/phvb8a.afm'
p1165
aS'/System/Library/Frameworks/Python.framework/Versions/2.7/Extras/lib/python/matplotlib/mpl-data/fonts/afm/pbkli8a.afm'
p1166
aS'/System/Library/Frameworks/Python.framework/Versions/2.7/Extras/lib/python/matplotlib/mpl-data/fonts/pdfcorefonts/Courier-BoldOblique.afm'
p1167
aS'/System/Library/Frameworks/Python.framework/Versions/2.7/Extras/lib/python/matplotlib/mpl-data/fonts/afm/pcrr8a.afm'
p1168
aS'/System/Library/Frameworks/Python.framework/Versions/2.7/Extras/lib/python/matplotlib/mpl-data/fonts/afm/pzdr.afm'
p1169
aS'/System/Library/Frameworks/Python.framework/Versions/2.7/Extras/lib/python/matplotlib/mpl-data/fonts/afm/cmsy10.afm'
p1170
aS'/System/Library/Frameworks/Python.framework/Versions/2.7/Extras/lib/python/matplotlib/mpl-data/fonts/afm/cmmi10.afm'
p1171
aS'/System/Library/Frameworks/Python.framework/Versions/2.7/Extras/lib/python/matplotlib/mpl-data/fonts/afm/pplbi8a.afm'
p1172
aS'/System/Library/Frameworks/Python.framework/Versions/2.7/Extras/lib/python/matplotlib/mpl-data/fonts/afm/cmex10.afm'
p1173
aS'/System/Library/Frameworks/Python.framework/Versions/2.7/Extras/lib/python/matplotlib/mpl-data/fonts/afm/pncri8a.afm'
p1174
aS'/System/Library/Frameworks/Python.framework/Versions/2.7/Extras/lib/python/matplotlib/mpl-data/fonts/afm/ptmri8a.afm'
p1175
aS'/System/Library/Frameworks/Python.framework/Versions/2.7/Extras/lib/python/matplotlib/mpl-data/fonts/afm/pzcmi8a.afm'
p1176
aS'/System/Library/Frameworks/Python.framework/Versions/2.7/Extras/lib/python/matplotlib/mpl-data/fonts/pdfcorefonts/Helvetica-BoldOblique.afm'
p1177
aS'/System/Library/Frameworks/Python.framework/Versions/2.7/Extras/lib/python/matplotlib/mpl-data/fonts/afm/phvro8an.afm'
p1178
aS'/System/Library/Frameworks/Python.framework/Versions/2.7/Extras/lib/python/matplotlib/mpl-data/fonts/afm/pplb8a.afm'
p1179
asS'afmlist'
p1180
(lp1181
g7
(g8
g9
NtRp1182
(dp1183
g12
g13
sg14
S'Helvetica'
p1184
sg16
I200
sg17
g13
sg18
g13
sg19
g1118
sg21
g22
sbag7
(g8
g9
NtRp1185
(dp1186
g12
g74
sg14
S'Utopia'
p1187
sg16
I700
sg17
g13
sg18
g13
sg19
g1121
sg21
g22
sbag7
(g8
g9
NtRp1188
(dp1189
g12
g13
sg14
S'Courier'
p1190
sg16
I700
sg17
g13
sg18
g13
sg19
g1122
sg21
g22
sbag7
(g8
g9
NtRp1191
(dp1192
g12
g74
sg14
S'Helvetica'
p1193
sg16
I700
sg17
g13
sg18
g13
sg19
g1123
sg21
g22
sbag7
(g8
g9
NtRp1194
(dp1195
g12
g13
sg14
S'Helvetica'
p1196
sg16
I700
sg17
g196
sg18
g13
sg19
g1124
sg21
g22
sbag7
(g8
g9
NtRp1197
(dp1198
g12
g13
sg14
S'Symbol'
p1199
sg16
I500
sg17
g13
sg18
g13
sg19
g1125
sg21
g22
sbag7
(g8
g9
NtRp1200
(dp1201
g12
g74
sg14
S'Helvetica'
p1202
sg16
I700
sg17
g196
sg18
g13
sg19
g1126
sg21
g22
sbag7
(g8
g9
NtRp1203
(dp1204
g12
g13
sg14
S'Times'
p1205
sg16
I500
sg17
g13
sg18
g13
sg19
g1127
sg21
g22
sbag7
(g8
g9
NtRp1206
(dp1207
g12
g13
sg14
S'New Century Schoolbook'
p1208
sg16
I500
sg17
g13
sg18
g13
sg19
g1128
sg21
g22
sbag7
(g8
g9
NtRp1209
(dp1210
g12
g74
sg14
S'Helvetica'
p1211
sg16
I200
sg17
g13
sg18
g13
sg19
g1129
sg21
g22
sbag7
(g8
g9
NtRp1212
(dp1213
g12
g74
sg14
S'Times'
p1214
sg16
I500
sg17
g13
sg18
g13
sg19
g1130
sg21
g22
sbag7
(g8
g9
NtRp1215
(dp1216
g12
g13
sg14
S'Helvetica'
p1217
sg16
I500
sg17
g13
sg18
g13
sg19
g1131
sg21
g22
sbag7
(g8
g9
NtRp1218
(dp1219
g12
g13
sg14
S'Helvetica'
p1220
sg16
I500
sg17
g196
sg18
g13
sg19
g1132
sg21
g22
sbag7
(g8
g9
NtRp1221
(dp1222
g12
g13
sg14
S'Courier'
p1223
sg16
I700
sg17
g13
sg18
g13
sg19
g1133
sg21
g22
sbag7
(g8
g9
NtRp1224
(dp1225
g12
g13
sg14
S'Helvetica'
p1226
sg16
I700
sg17
g13
sg18
g13
sg19
g1134
sg21
g22
sbag7
(g8
g9
NtRp1227
(dp1228
g12
g13
sg14
S'Times'
p1229
sg16
I700
sg17
g13
sg18
g13
sg19
g1135
sg21
g22
sbag7
(g8
g9
NtRp1230
(dp1231
g12
g13
sg14
S'ITC Avant Garde Gothic'
p1232
sg16
I600
sg17
g13
sg18
g13
sg19
g1136
sg21
g22
sbag7
(g8
g9
NtRp1233
(dp1234
g12
g13
sg14
S'ZapfDingbats'
p1235
sg16
I500
sg17
g13
sg18
g13
sg19
g1137
sg21
g22
sbag7
(g8
g9
NtRp1236
(dp1237
g12
g13
sg14
S'Utopia'
p1238
sg16
I400
sg17
g13
sg18
g13
sg19
g1138
sg21
g22
sbag7
(g8
g9
NtRp1239
(dp1240
g12
g13
sg14
S'Computer Modern'
p1241
sg16
I500
sg17
g13
sg18
g13
sg19
g1139
sg21
g22
sbag7
(g8
g9
NtRp1242
(dp1243
g12
g74
sg14
S'ITC Avant Garde Gothic'
p1244
sg16
I400
sg17
g13
sg18
g13
sg19
g1140
sg21
g22
sbag7
(g8
g9
NtRp1245
(dp1246
g12
g13
sg14
S'Times'
p1247
sg16
I500
sg17
g13
sg18
g13
sg19
g1141
sg21
g22
sbag7
(g8
g9
NtRp1248
(dp1249
g12
g74
sg14
S'Helvetica'
p1250
sg16
I500
sg17
g13
sg18
g13
sg19
g1142
sg21
g22
sbag7
(g8
g9
NtRp1251
(dp1252
g12
g13
sg14
S'Computer Modern'
p1253
sg16
I500
sg17
g13
sg18
g13
sg19
g1143
sg21
g22
sbag7
(g8
g9
NtRp1254
(dp1255
g12
g74
sg14
S'Courier'
p1256
sg16
I500
sg17
g13
sg18
g13
sg19
g1144
sg21
g22
sbag7
(g8
g9
NtRp1257
(dp1258
g12
g74
sg14
S'Courier'
p1259
sg16
I500
sg17
g13
sg18
g13
sg19
g1145
sg21
g22
sbag7
(g8
g9
NtRp1260
(dp1261
g12
g74
sg14
S'Courier'
p1262
sg16
I700
sg17
g13
sg18
g13
sg19
g1146
sg21
g22
sbag7
(g8
g9
NtRp1263
(dp1264
g12
g13
sg14
S'Courier'
p1265
sg16
I500
sg17
g13
sg18
g13
sg19
g1147
sg21
g22
sbag7
(g8
g9
NtRp1266
(dp1267
g12
g74
sg14
S'Times'
p1268
sg16
I700
sg17
g13
sg18
g13
sg19
g1148
sg21
g22
sbag7
(g8
g9
NtRp1269
(dp1270
g12
g74
sg14
S'ITC Avant Garde Gothic'
p1271
sg16
I600
sg17
g13
sg18
g13
sg19
g1149
sg21
g22
sbag7
(g8
g9
NtRp1272
(dp1273
g12
g74
sg14
S'Times'
p1274
sg16
I700
sg17
g13
sg18
g13
sg19
g1150
sg21
g22
sbag7
(g8
g9
NtRp1275
(dp1276
g12
g13
sg14
S'ITC Bookman'
p1277
sg16
I600
sg17
g13
sg18
g13
sg19
g1151
sg21
g22
sbag7
(g8
g9
NtRp1278
(dp1279
g12
g13
sg14
S'Palatino'
p1280
sg16
I500
sg17
g13
sg18
g13
sg19
g1152
sg21
g22
sbag7
(g8
g9
NtRp1281
(dp1282
g12
g74
sg14
S'ITC Bookman'
p1283
sg16
I600
sg17
g13
sg18
g13
sg19
g1153
sg21
g22
sbag7
(g8
g9
NtRp1284
(dp1285
g12
g13
sg14
S'ITC Avant Garde Gothic'
p1286
sg16
I400
sg17
g13
sg18
g13
sg19
g1154
sg21
g22
sbag7
(g8
g9
NtRp1287
(dp1288
g12
g74
sg14
S'Utopia'
p1289
sg16
I400
sg17
g13
sg18
g13
sg19
g1155
sg21
g22
sbag7
(g8
g9
NtRp1290
(dp1291
g12
g13
sg14
S'Helvetica'
p1292
sg16
I500
sg17
g13
sg18
g13
sg19
g1156
sg21
g22
sbag7
(g8
g9
NtRp1293
(dp1294
g12
g13
sg14
S'ITC Bookman'
p1295
sg16
I200
sg17
g13
sg18
g13
sg19
g1157
sg21
g22
sbag7
(g8
g9
NtRp1296
(dp1297
g12
g74
sg14
S'Helvetica'
p1298
sg16
I500
sg17
g13
sg18
g13
sg19
g1158
sg21
g22
sbag7
(g8
g9
NtRp1299
(dp1300
g12
g13
sg14
S'Symbol'
p1301
sg16
I500
sg17
g13
sg18
g13
sg19
g1159
sg21
g22
sbag7
(g8
g9
NtRp1302
(dp1303
g12
g13
sg14
S'Times'
p1304
sg16
I700
sg17
g13
sg18
g13
sg19
g1160
sg21
g22
sbag7
(g8
g9
NtRp1305
(dp1306
g12
g74
sg14
S'Palatino'
p1307
sg16
I500
sg17
g13
sg18
g13
sg19
g1161
sg21
g22
sbag7
(g8
g9
NtRp1308
(dp1309
g12
g13
sg14
S'New Century Schoolbook'
p1310
sg16
I700
sg17
g13
sg18
g13
sg19
g1162
sg21
g22
sbag7
(g8
g9
NtRp1311
(dp1312
g12
g13
sg14
S'Utopia'
p1313
sg16
I700
sg17
g13
sg18
g13
sg19
g1163
sg21
g22
sbag7
(g8
g9
NtRp1314
(dp1315
g12
g74
sg14
S'New Century Schoolbook'
p1316
sg16
I700
sg17
g13
sg18
g13
sg19
g1164
sg21
g22
sbag7
(g8
g9
NtRp1317
(dp1318
g12
g13
sg14
S'Helvetica'
p1319
sg16
I700
sg17
g13
sg18
g13
sg19
g1165
sg21
g22
sbag7
(g8
g9
NtRp1320
(dp1321
g12
g74
sg14
S'ITC Bookman'
p1322
sg16
I200
sg17
g13
sg18
g13
sg19
g1166
sg21
g22
sbag7
(g8
g9
NtRp1323
(dp1324
g12
g74
sg14
S'Courier'
p1325
sg16
I700
sg17
g13
sg18
g13
sg19
g1167
sg21
g22
sbag7
(g8
g9
NtRp1326
(dp1327
g12
g13
sg14
S'Courier'
p1328
sg16
I500
sg17
g13
sg18
g13
sg19
g1168
sg21
g22
sbag7
(g8
g9
NtRp1329
(dp1330
g12
g13
sg14
S'ITC Zapf Dingbats'
p1331
sg16
I500
sg17
g13
sg18
g13
sg19
g1169
sg21
g22
sbag7
(g8
g9
NtRp1332
(dp1333
g12
g74
sg14
S'Computer Modern'
p1334
sg16
I500
sg17
g13
sg18
g13
sg19
g1170
sg21
g22
sbag7
(g8
g9
NtRp1335
(dp1336
g12
g74
sg14
S'Computer Modern'
p1337
sg16
I500
sg17
g13
sg18
g13
sg19
g1171
sg21
g22
sbag7
(g8
g9
NtRp1338
(dp1339
g12
g74
sg14
S'Palatino'
p1340
sg16
I700
sg17
g13
sg18
g13
sg19
g1172
sg21
g22
sbag7
(g8
g9
NtRp1341
(dp1342
g12
g13
sg14
S'Computer Modern'
p1343
sg16
I500
sg17
g13
sg18
g13
sg19
g1173
sg21
g22
sbag7
(g8
g9
NtRp1344
(dp1345
g12
g74
sg14
S'New Century Schoolbook'
p1346
sg16
I500
sg17
g13
sg18
g13
sg19
g1174
sg21
g22
sbag7
(g8
g9
NtRp1347
(dp1348
g12
g74
sg14
S'Times'
p1349
sg16
I500
sg17
g13
sg18
g13
sg19
g1175
sg21
g22
sbag7
(g8
g9
NtRp1350
(dp1351
g12
g74
sg14
S'ITC Zapf Chancery'
p1352
sg16
I500
sg17
g13
sg18
g13
sg19
g1176
sg21
g22
sbag7
(g8
g9
NtRp1353
(dp1354
g12
g74
sg14
S'Helvetica'
p1355
sg16
I700
sg17
g13
sg18
g13
sg19
g1177
sg21
g22
sbag7
(g8
g9
NtRp1356
(dp1357
g12
g74
sg14
S'Helvetica'
p1358
sg16
I500
sg17
g196
sg18
g13
sg19
g1178
sg21
g22
sbag7
(g8
g9
NtRp1359
(dp1360
g12
g13
sg14
S'Palatino'
p1361
sg16
I700
sg17
g13
sg18
g13
sg19
g1179
sg21
g22
sbasb.